ccopy_reg
_reconstructor
p1
(csklearn.linear_model.logistic
LogisticRegression
p2
c__builtin__
object
p3
NtRp4
(dp5
S'warm_start'
p6
I00
sS'C'
F1
sS'classes_'
p7
cnumpy.core.multiarray
_reconstruct
p8
(cnumpy
ndarray
p9
(I0
tS'b'
tRp10
(I1
(I2
tcnumpy
dtype
p11
(S'i8'
I0
I1
tRp12
(I3
S'<'
NNNI-1
I-1
I0
tbI00
S'\x00\x00\x00\x00\x00\x00\x00\x00\x01\x00\x00\x00\x00\x00\x00\x00'
tbsS'n_jobs'
p13
I1
sS'verbose'
p14
I0
sS'fit_intercept'
p15
I01
sS'max_iter'
p16
I100
sS'class_weight'
p17
S'balanced'
p18
sS'n_iter_'
p19
g8
(g9
(I0
tS'b'
tRp20
(I1
(I1
tg11
(S'i4'
I0
I1
tRp21
(I3
S'<'
NNNI-1
I-1
I0
tbI00
S'\x07\x00\x00\x00'
tbsS'intercept_'
p22
g8
(g9
(I0
tS'b'
tRp23
(I1
(I1
tg11
(S'f8'
I0
I1
tRp24
(I3
S'<'
NNNI-1
I-1
I0
tbI00
S'\x1eE\x03>\xae1\xa8?'
tbsS'penalty'
p25
S'l2'
p26
sS'multi_class'
p27
S'ovr'
p28
sS'random_state'
p29
NsS'_sklearn_version'
p30
S'0.18.1'
p31
sS'dual'
p32
I00
sS'tol'
p33
F0.0001
sS'coef_'
p34
g8
(g9
(I0
tS'b'
tRp35
(I1
(I1
I3
tg24
I01
S'\x8d:\xbb\xd4&\xa0\xba?\x8d_]\xa0\xcd\x98\xe2?\xb9\xb7\xe3\x91y\r\x0f@'
tbsS'solver'
p36
S'liblinear'
p37
sS'intercept_scaling'
p38
I1
sb.