ccopy_reg
_reconstructor
p1
(csklearn.preprocessing.data
StandardScaler
p2
c__builtin__
object
p3
NtRp4
(dp5
S'mean_'
p6
cnumpy.core.multiarray
_reconstruct
p7
(cnumpy
ndarray
p8
(I0
tS'b'
tRp9
(I1
(I3
tcnumpy
dtype
p10
(S'f8'
I0
I1
tRp11
(I3
S'<'
NNNI-1
I-1
I0
tbI00
S'H\x12U55w\xe3?\x86A\x08\x9el\x85\xe3?\xc2\xde\xb3\xdf)\x99\xe3?'
tbsS'with_mean'
p12
I01
sS'var_'
p13
g7
(g8
(I0
tS'b'
tRp14
(I1
(I3
tg11
I00
S'b\xfb\xd4\xc5\x05\xf8\x0c@\x030wj\xc3\x14\r@\x03\xdb\xed\xfb[A\r@'
tbsS'scale_'
p15
g7
(g8
(I0
tS'b'
tRp16
(I1
(I3
tg11
I00
S'!-uN\\r\xfe?\xa4\x07\xa8\x11s\x81\xfe?K\x0cH\t\xce\x98\xfe?'
tbsS'with_std'
p17
I01
sS'n_samples_seen_'
p18
I1282334
sS'_sklearn_version'
p19
S'0.18.1'
p20
sS'copy'
p21
I01
sb.