ccopy_reg
_reconstructor
p1
(csklearn.linear_model.logistic
LogisticRegression
p2
c__builtin__
object
p3
NtRp4
(dp5
S'loss'
p6
S'lr'
p7
sS'C'
F1
sS'intercept_'
p8
cnumpy.core.multiarray
_reconstruct
p9
(cnumpy
ndarray
p10
(I0
tS'b'
tRp11
(I1
(I1
tcnumpy
dtype
p12
(S'f8'
I0
I1
tRp13
(I3
S'<'
NNNI-1
I-1
I0
tbI00
S'\xc6.\x96\xb6\x8a\xdc\xa4?'
tbsS'verbose'
p14
I0
sS'dual'
p15
I00
sS'fit_intercept'
p16
I01
sS'class_weight_'
p17
g9
(g10
(I0
tS'b'
tRp18
(I1
(I2
tg13
I00
S'\xa7\xa5e\x03\xce\xcc\xd1?\x95\x96&\x7f\xcc\x8c\xfb?'
tbsS'penalty'
p19
S'l2'
p20
sS'multi_class'
p21
S'ovr'
p22
sS'random_state'
p23
NsS'raw_coef_'
p24
g9
(g10
(I0
tS'b'
tRp25
(I1
(I1
I4
tg13
I01
S'p\xb5\xba\x18\x1a\xdd\xb7?\x04\xff\xee\n\x80\x9f\xe1?v\rl\xd7\xe7m\x0e@\xc6.\x96\xb6\x8a\xdc\xa4?'
tbsS'_enc'
p26
g1
(csklearn.preprocessing.label
LabelEncoder
p27
g3
NtRp28
(dp29
S'classes_'
p30
g9
(g10
(I0
tS'b'
tRp31
(I1
(I2
tg12
(S'i4'
I0
I1
tRp32
(I3
S'<'
NNNI-1
I-1
I0
tbI00
S'\x00\x00\x00\x00\x01\x00\x00\x00'
tbsbsS'tol'
p33
F0.0001
sS'coef_'
p34
g9
(g10
(I0
tS'b'
tRp35
(I1
(I1
I3
tg13
I01
S'p\xb5\xba\x18\x1a\xdd\xb7?\x04\xff\xee\n\x80\x9f\xe1?v\rl\xd7\xe7m\x0e@'
tbsS'class_weight'
p36
S'auto'
p37
sS'intercept_scaling'
p38
I1
sb.