cnltk.probability
ConditionalFreqDist
p1
(tRp2
S'rpSE'
p3
cnltk.probability
FreqDist
p4
((dp5
g3
I954
sS'e'
I636
sS'f'
I11973
sS'i'
I175
sS'rpE'
p6
I98
sS'rpSM'
p7
I172
sS'se'
p8
I352
stRp9
sS'e'
g4
((dp10
S'e'
I11294
sg6
I44
sg8
I5373
sS'f'
I29558
stRp11
sS'f'
g4
((dp12
g3
I10607
sS'e'
I28276
sS'f'
I520381
sS'i'
I3136
sg6
I158
sg7
I5100
sg8
I85308
stRp13
sS'i'
g4
((dp14
S'i'
I1344
sg7
I1304
sg3
I2135
stRp15
sg7
g4
((dp16
g3
I175
sS'e'
I42
sS'i'
I21
sg6
I3825
sg7
I15
sS'rpM'
p17
I2898
stRp18
sS's'
g4
((dp19
S'e'
I5650
sg6
I452
sS'f'
I85041
stRp20
sg6
g4
((dp21
g3
I56
sS'e'
I320
sS'f'
I6013
sS'i'
I77
sg6
I24
sg7
I324
sg8
I456
stRp22
sg17
g4
((dp23
g3
I87
sS'e'
I51
sS'i'
I30
sg6
I2669
sg7
I61
sg17
I3283
stRp24
sg8
g4
((dp25
g3
I346
stRp26
s.