cnltk.probability
ConditionalFreqDist
p1
(tRp2
S'aa'
p3
cnltk.probability
FreqDist
p4
((dp5
S'aa'
p6
I7423
sS'se'
p7
I9971
stRp8
sS'fp'
p9
g4
((dp10
S'fp'
p11
I271
sg7
I208
stRp12
sS'ad'
p13
g4
((dp14
S'ad'
p15
I5129
sg7
I674
stRp16
sS'b^m'
p17
g4
((dp18
S'b^m'
p19
I603
sg7
I611
stRp20
sS't3'
p21
g4
((dp22
S't3'
p23
I340
sg7
I106
stRp24
sS'qrr'
p25
g4
((dp26
S'qrr'
p27
I1366
sg7
I189
stRp28
sS'ar'
p29
g4
((dp30
S'ar'
p31
I535
sg7
I308
stRp32
sS'%'
g4
((dp33
S'%'
I20078
sg7
I13554
stRp34
sS'nn'
p35
g4
((dp36
g7
I1226
sS'nn'
p37
I223
stRp38
sS'no'
p39
g4
((dp40
g7
I245
sS'no'
p41
I1157
stRp42
sS'aap_am'
p43
g4
((dp44
S'aap_am'
p45
I351
sg7
I93
stRp46
sS'^2'
p47
g4
((dp48
S'^2'
p49
I2138
sg7
I657
stRp50
sS'ng'
p51
g4
((dp52
g7
I267
sS'ng'
p53
I1402
stRp54
sS'ny'
p55
g4
((dp56
S'ny'
p57
I414
sg7
I2721
stRp58
sS'^q'
p59
g4
((dp60
S'^q'
p61
I5808
sg7
I860
stRp62
sS'qw^d'
p63
g4
((dp64
S'qw^d'
p65
I605
sg7
I72
stRp66
sS'bd'
p67
g4
((dp68
S'bd'
p69
I180
sg7
I99
stRp70
sS'qy^d'
p71
g4
((dp72
S'qy^d'
p73
I7945
sg7
I1066
stRp74
sS'bf'
p75
g4
((dp76
S'bf'
p77
I5269
sg7
I799
stRp78
sS'ft'
p79
g4
((dp80
S'ft'
p81
I127
sg7
I67
stRp82
sS'ba'
p83
g4
((dp84
S'ba'
p85
I7425
sg7
I4403
stRp86
sS'oo_co_cc'
p87
g4
((dp88
S'oo_co_cc'
p89
I715
sg7
I99
stRp90
sS'bh'
p91
g4
((dp92
S'bh'
p93
I1212
sg7
I944
stRp94
sS'bk'
p95
g4
((dp96
g7
I1142
sS'bk'
p97
I637
stRp98
sS'fa'
p99
g4
((dp100
S'fa'
p101
I177
sg7
I74
stRp102
sS'fc'
p103
g4
((dp104
S'fc'
p105
I6390
sg7
I2509
stRp106
sS'br'
p107
g4
((dp108
S'br'
p109
I387
sg7
I253
stRp110
sS'fo_o_fw_"_by_bc'
p111
g4
((dp112
S'fo_o_fw_"_by_bc'
p113
I938
sg7
I789
stRp114
sS'b'
g4
((dp115
S'b'
I2326
sg7
I34244
stRp116
sS'arp_nd'
p117
g4
((dp118
S'arp_nd'
p119
I1426
sg7
I187
stRp120
sS'qw'
p121
g4
((dp122
S'qw'
p123
I11027
sg7
I1734
stRp124
sS'qy'
p125
g4
((dp126
S'qy'
p127
I29633
sg7
I4173
stRp128
sS'h'
g4
((dp129
S'h'
I3842
sg7
I1044
stRp130
sS'sv'
p131
g4
((dp132
S'sv'
p133
I270792
sg7
I22478
stRp134
sS't1'
p135
g4
((dp136
g7
I97
sS't1'
p137
I479
stRp138
sS'^h'
p139
g4
((dp140
S'^h'
p141
I1952
sg7
I502
stRp142
sS's'
g4
((dp143
g3
I9971
sg67
I99
sg13
I674
sg17
I611
sg131
I22478
sS'na'
p144
I762
sg25
I189
sg29
I308
sS'%'
I13554
sg35
I1226
sg39
I245
sg43
I93
sg47
I657
sg51
I267
sg55
I2721
sg63
I72
sg9
I208
sg75
I799
sg79
I67
sg83
I4403
sg91
I944
sg87
I99
sg95
I1142
sg99
I74
sg103
I2509
sg107
I253
sg71
I1066
sg111
I789
sS'b'
I34244
sg121
I1734
sg117
I187
sg125
I4173
sg59
I860
sg21
I106
sg135
I97
sg139
I502
sS'h'
I1044
sS'qh'
p145
I512
sS'sd'
p146
I67052
sS'qo'
p147
I538
sS'^g'
p148
I85
stRp149
sg144
g4
((dp150
S'na'
p151
I3100
sg7
I762
stRp152
sg145
g4
((dp153
S'qh'
p154
I4997
sg7
I512
stRp155
sg148
g4
((dp156
g7
I85
sS'^g'
p157
I47
stRp158
sg147
g4
((dp159
S'qo'
p160
I3565
sg7
I538
stRp161
sg146
g4
((dp162
g7
I67052
sS'sd'
p163
I692489
stRp164
s.