cnltk.probability
ConditionalFreqDist
p1
(tRp2
S'rpSE'
p3
cnltk.probability
FreqDist
p4
((dp5
g3
I2183
sS'e'
I1559
sS'f'
I24425
sS'rpE'
p6
I146
sS'rpSM'
p7
I372
sS'se'
p8
I793
stRp9
sS'e'
g4
((dp10
g3
I4194
sS'e'
I23786
sS'f'
I49694
sg6
I50
sg7
I2368
sg8
I10226
stRp11
sS'f'
g4
((dp12
g3
I22480
sS'e'
I39270
sS'f'
I888277
sg6
I246
sg7
I9589
sg8
I165630
stRp13
sg7
g4
((dp14
g6
I7495
sg3
I256
sS'rpM'
p15
I5253
sS'e'
I113
sg7
I19
stRp16
sS's'
g4
((dp17
S'e'
I24929
sS'f'
I152485
stRp18
sg6
g4
((dp19
g3
I164
sS'e'
I622
sS'f'
I10577
sg6
I32
sg7
I678
sg8
I765
stRp20
sg15
g4
((dp21
g6
I4842
sg3
I180
sg15
I5682
sg7
I94
sS'eR'
p22
I137
stRp23
sg22
g4
((dp24
g6
I27
sg3
I21
sS'e'
I39
sg7
I16
sS'f'
I34
stRp25
s.