cnltk.probability
ConditionalFreqDist
p1
(tRp2
S'rpSE'
p3
cnltk.probability
FreqDist
p4
((dp5
g3
I1071
sS'e'
I619
sS'f'
I12531
sS'i'
I187
sS'rpE'
p6
I119
sS'rpSM'
p7
I167
sS'se'
p8
I442
stRp9
sS'e'
g4
((dp10
S'e'
I4099
sg6
I42
sg8
I1062
sS'f'
I9308
stRp11
sS'f'
g4
((dp12
g3
I11449
sS'e'
I8252
sS'f'
I164555
sS'i'
I3202
sg6
I180
sg7
I5246
sg8
I14151
stRp13
sS'i'
g4
((dp14
S'i'
I1392
sg3
I2220
sg7
I1314
stRp15
sg7
g4
((dp16
g3
I220
sS'e'
I41
sS'i'
I31
sg6
I3927
sg7
I15
sS'rpM'
p17
I2933
stRp18
sS's'
g4
((dp19
S'e'
I1193
sS'f'
I14934
stRp20
sg6
g4
((dp21
g3
I69
sS'e'
I257
sS'f'
I5707
sS'i'
I82
sg6
I26
sg7
I358
sg8
I472
stRp22
sg17
g4
((dp23
g3
I107
sS'e'
I50
sS'i'
I32
sg6
I2677
sg7
I67
sg17
I3247
stRp24
s.