cnltk.probability
ConditionalFreqDist
p1
(tRp2
S't_e_t'
p3
cnltk.probability
FreqDist
p4
((dp5
S't_e_t'
p6
I86
sS't_f_c'
p7
I493
sS't_f_t'
p8
I862
sS't_e_c'
p9
I353
stRp10
sS'c_rpSM_c'
p11
g4
((dp12
S'c_rpSM_c'
p13
I19
sS'c_rpE_t'
p14
I317
sS'c_rpE_c'
p15
I7178
sS'c_rpSE_c'
p16
I255
sS'c_eR_c'
p17
I113
sS'c_rpM_c'
p18
I5253
sS'c_rpSE_t'
p19
I1
stRp20
sg14
g4
((dp21
S't_f_c'
p22
I542
sS't_e_t'
p23
I5
sS't_e_c'
p24
I88
sS't_f_t'
p25
I124
stRp26
sS't_f_t'
p27
g4
((dp28
S't_f_c'
p29
I18289
sg3
I679
sS't_e_c'
p30
I7020
sS't_f_t'
p31
I23576
stRp32
sS'c_f_t'
p33
g4
((dp34
S't_f_c'
p35
I75805
sS't_e_t'
p36
I986
sS't_f_t'
p37
I23375
sS't_e_c'
p38
I14081
stRp39
sS'c_rpSE_c'
p40
g4
((dp41
S'c_rpSM_c'
p42
I372
sS'c_rpE_t'
p43
I6
sS'c_f_t'
p44
I1506
sS'c_rpSE_c'
p45
I2122
sS'c_e_t'
p46
I117
sS'c_rpE_c'
p47
I140
sS'c_e_c'
p48
I1442
sS'c_rpSE_t'
p49
I61
sS'c_f_c'
p50
I22919
stRp51
sg18
g4
((dp52
S'c_rpSM_c'
p53
I94
sS'c_rpE_t'
p54
I407
sS'c_rpE_c'
p55
I4435
sS'c_rpSE_c'
p56
I180
sS'c_eR_c'
p57
I137
sS'c_rpM_c'
p58
I5682
stRp59
sg46
g4
((dp60
S't_f_c'
p61
I5866
sS't_e_t'
p62
I50
sS't_e_c'
p63
I870
sS't_f_t'
p64
I1542
stRp65
sg29
g4
((dp66
S'c_e_c'
p67
I7643
sS'c_rpSM_c'
p68
I533
sS'c_f_t'
p69
I8103
sS'c_rpSE_c'
p70
I5873
sS'c_f_c'
p71
I78722
sS'c_rpSE_t'
p72
I211
sS'c_e_t'
p73
I993
stRp74
sS's'
g4
((dp75
S't_f_c'
p76
I555
sS't_e_t'
p77
I11
sg27
I769
sS't_e_c'
p78
I609
stRp79
sg15
g4
((dp80
S'c_rpSM_c'
p81
I678
sS'c_rpE_t'
p82
I3
sS'c_f_t'
p83
I919
sS'c_rpSE_c'
p84
I158
sS'c_e_t'
p85
I45
sS'c_rpE_c'
p86
I29
sS'c_e_c'
p87
I577
sS'c_rpSE_t'
p88
I6
sS'c_f_c'
p89
I9658
stRp90
sg30
g4
((dp91
S'c_e_c'
p92
I5144
sS'c_f_t'
p93
I4153
sS'c_f_c'
p94
I13601
sS'c_e_t'
p95
I209
stRp96
sS'c_e_c'
p97
g4
((dp98
g11
I2367
sS'c_rpE_t'
p99
I1
sS'c_f_t'
p100
I1444
sg40
I4075
sS'c_e_t'
p101
I3983
sS'c_rpE_c'
p102
I22
sS'c_e_c'
p103
I14409
sS'c_rpSE_t'
p104
I100
sS'c_f_c'
p105
I30471
stRp106
sg17
g4
((dp107
S'c_rpSM_c'
p108
I17
sS'c_rpE_t'
p109
I5
sS'c_rpE_c'
p110
I49
sS'c_e_c'
p111
I80
sS'c_rpSE_c'
p112
I38
sS'c_rpSE_t'
p113
I2
sS'c_f_c'
p114
I59
stRp115
sg72
g4
((dp116
S't_f_c'
p117
I528
sS't_e_t'
p118
I5
sS't_e_c'
p119
I86
sS't_f_t'
p120
I159
stRp121
sg94
g4
((dp122
S'c_rpSM_c'
p123
I9056
sS'c_rpE_t'
p124
I26
sg33
I99098
sS'c_rpSE_c'
p125
I15984
sS'c_e_t'
p126
I3057
sS'c_rpE_c'
p127
I220
sg97
I27577
sS'c_rpSE_t'
p128
I412
sS'c_f_c'
p129
I702354
stRp130
s.