cnltk.probability
ConditionalFreqDist
p1
(tRp2
S't_e_t'
p3
cnltk.probability
FreqDist
p4
((dp5
S't_f_c'
p6
I1
sS't_e_t'
p7
I1
sS't_e_c'
p8
I1
sS't_f_t'
p9
I1
stRp10
sS'c_rpSM_c'
p11
g4
((dp12
S'c_rpSM_c'
p13
I1
sS'c_rpE_t'
p14
I1
sS'c_i_c\n'
p15
I1
sS'c_rpSE_c'
p16
I1
sS'c_rpM_c'
p17
I1
sS'c_rpE_c'
p18
I1
sS'c_eR_c'
p19
I1
sS'c_rpSE_t'
p20
I1
stRp21
sS'c_rpE_t'
p22
g4
((dp23
g6
I1
sg7
I1
sg8
I1
sg9
I1
stRp24
sS't_f_t'
p25
g4
((dp26
g6
I1
sg7
I1
sg8
I1
sg9
I1
stRp27
sS'c_f_t'
p28
g4
((dp29
g6
I1
sg7
I1
sg8
I1
sg9
I1
stRp30
sS'c_rpSE_c'
p31
g4
((dp32
g13
I1
sg14
I1
sg15
I1
sS'c_f_t'
p33
I1
sg16
I1
sg17
I1
sS'c_e_t'
p34
I1
sg18
I1
sS'c_e_c'
p35
I1
sg19
I1
sg20
I1
sS'c_f_c'
p36
I1
stRp37
sS'c_rpM_c'
p38
g4
((dp39
g13
I1
sg14
I1
sg15
I1
sg16
I1
sg17
I1
sg18
I1
sg19
I1
sg20
I1
stRp40
sS'c_e_t'
p41
g4
((dp42
g6
I1
sg7
I1
sg8
I1
sg9
I1
stRp43
sS't_f_c'
p44
g4
((dp45
g13
I1
sg15
I1
sg33
I1
sg16
I1
sg34
I1
sg35
I1
sg20
I1
sg36
I1
stRp46
sS's'
g4
((dp47
g6
I1
sg7
I1
sg8
I1
sg9
I1
stRp48
sS'c_rpE_c'
p49
g4
((dp50
g13
I1
sg14
I1
sg15
I1
sg33
I1
sg16
I1
sg17
I1
sg34
I1
sg18
I1
sg35
I1
sg19
I1
sg20
I1
sg36
I1
stRp51
sS't_e_c'
p52
g4
((dp53
g35
I1
sg33
I1
sg36
I1
sg34
I1
stRp54
sS'c_e_c'
p55
g4
((dp56
g35
I1
sg33
I1
sg14
I1
sg36
I1
sg34
I1
stRp57
sS'c_eR_c'
p58
g4
((dp59
g13
I1
sg14
I1
sg18
I1
sg16
I1
sg19
I1
sg17
I1
sg20
I1
stRp60
sS'c_i_c'
p61
g4
((dp62
g16
I1
sg13
I1
sg20
I1
sg15
I1
stRp63
sS'c_rpSE_t'
p64
g4
((dp65
g6
I1
sg7
I1
sg8
I1
sg9
I1
stRp66
sS'c_f_c'
p67
g4
((dp68
g13
I1
sg15
I1
sg33
I1
sg16
I1
sg34
I1
sg35
I1
sg20
I1
sg36
I1
stRp69
s.