cnltk.probability
ConditionalFreqDist
p1
(tRp2
S't_e_t'
p3
cnltk.probability
FreqDist
p4
((dp5
S't_e_t'
p6
I86
sS't_f_c'
p7
I493
sS't_f_t'
p8
I862
sS't_e_c'
p9
I353
stRp10
sS't_f_t'
p11
g4
((dp12
S't_f_c'
p13
I18289
sg3
I679
sS't_e_c'
p14
I7020
sS't_f_t'
p15
I23576
stRp16
sS'c_f_t'
p17
g4
((dp18
S't_f_c'
p19
I76347
sS't_e_t'
p20
I991
sS't_f_t'
p21
I23499
sS't_e_c'
p22
I14169
stRp23
sS'c_rpSE_c'
p24
g4
((dp25
S'c_e_c'
p26
I1172
sS'c_f_t'
p27
I1829
sS'c_rpSE_c'
p28
I2768
sS'c_f_c'
p29
I35490
sS'c_i_c'
p30
I383
sS'c_rpSE_t'
p31
I62
sS'c_e_t'
p32
I117
stRp33
sg32
g4
((dp34
S't_f_c'
p35
I5866
sS't_e_t'
p36
I50
sS't_e_c'
p37
I870
sS't_f_t'
p38
I1542
stRp39
sg13
g4
((dp40
S'c_e_c'
p41
I6491
sS'c_f_t'
p42
I8103
sS'c_rpSE_c'
p43
I6406
sS'c_f_c'
p44
I78722
sS'c_i_c'
p45
I1152
sS'c_rpSE_t'
p46
I211
sS'c_e_t'
p47
I993
stRp48
sS's'
g4
((dp49
S't_f_c'
p50
I555
sS't_e_t'
p51
I11
sg11
I769
sS't_e_c'
p52
I609
stRp53
sg14
g4
((dp54
S'c_e_c'
p55
I5144
sS'c_f_t'
p56
I4153
sS'c_f_c'
p57
I13601
sS'c_e_t'
p58
I209
stRp59
sS'c_e_c'
p60
g4
((dp61
S'c_e_c'
p62
I11820
sS'c_f_t'
p63
I1450
sS'c_f_c'
p64
I30601
sS'c_e_t'
p65
I3983
stRp66
sS'c_i_c'
p67
g4
((dp68
g24
I6497
sS'c_i_c'
p69
I2669
sS'c_rpSE_t'
p70
I102
stRp71
sg46
g4
((dp72
S't_f_c'
p73
I528
sS't_e_t'
p74
I5
sS't_e_c'
p75
I86
sS't_f_t'
p76
I159
stRp77
sg57
g4
((dp78
g60
I23227
sg17
I100453
sS'c_rpSE_c'
p79
I26150
sS'c_f_c'
p80
I722378
sg67
I5064
sS'c_rpSE_t'
p81
I418
sS'c_e_t'
p82
I3102
stRp83
s.