cnltk.probability
ConditionalFreqDist
p1
(tRp2
S't_w_c'
p3
cnltk.probability
FreqDist
p4
((dp5
S'c_w_t'
p6
I1
sS'c_w_c'
p7
I1
stRp8
sS's'
g4
((dp9
g6
I1
sS'se\n'
p10
I1
stRp11
sS't_w_t'
p12
g4
((dp13
S't_w_c'
p14
I1
sg10
I1
sS't_w_t'
p15
I1
stRp16
sS'c_w_c'
p17
g4
((dp18
g6
I1
sg7
I1
stRp19
sS'c_w_t'
p20
g4
((dp21
g14
I1
sg10
I1
sg15
I1
stRp22
s.