cnltk.probability
ConditionalFreqDist
p1
(tRp2
S't_e_t'
p3
cnltk.probability
FreqDist
p4
((dp5
S't_e_t'
p6
I86
sS't_f_c'
p7
I493
sS't_f_t'
p8
I862
sS't_e_c'
p9
I353
stRp10
sS'c_rpSM_c'
p11
g4
((dp12
S'c_rpSM_c'
p13
I19
sS'c_rpE_t'
p14
I317
sS'c_rpSE_c'
p15
I255
sS'c_rpM_c'
p16
I5253
sS'c_rpE_c'
p17
I7178
sS'c_e_c'
p18
I75
sS'c_i_c'
p19
I38
sS'c_rpSE_t'
p20
I1
stRp21
sg14
g4
((dp22
S't_f_c'
p23
I542
sS't_e_t'
p24
I5
sS't_e_c'
p25
I88
sS't_f_t'
p26
I124
stRp27
sS't_f_t'
p28
g4
((dp29
S't_f_c'
p30
I18289
sg3
I679
sS't_e_c'
p31
I7020
sS't_f_t'
p32
I23576
stRp33
sS'c_f_t'
p34
g4
((dp35
S't_f_c'
p36
I75805
sS't_e_t'
p37
I986
sS't_f_t'
p38
I23375
sS't_e_c'
p39
I14081
stRp40
sS'c_rpSE_c'
p41
g4
((dp42
S'c_rpSM_c'
p43
I372
sS'c_rpE_t'
p44
I6
sS'c_f_t'
p45
I1506
sS'c_rpSE_c'
p46
I2122
sS'c_e_t'
p47
I117
sS'c_rpE_c'
p48
I140
sS'c_e_c'
p49
I1097
sS'c_i_c'
p50
I345
sS'c_rpSE_t'
p51
I61
sS'c_f_c'
p52
I22919
stRp53
sg16
g4
((dp54
S'c_rpSM_c'
p55
I94
sS'c_rpE_t'
p56
I407
sS'c_rpE_c'
p57
I4435
sS'c_e_c'
p58
I86
sS'c_i_c'
p59
I51
sS'c_rpSE_c'
p60
I180
sS'c_rpM_c'
p61
I5682
stRp62
sg47
g4
((dp63
S't_f_c'
p64
I5866
sS't_e_t'
p65
I50
sS't_e_c'
p66
I870
sS't_f_t'
p67
I1542
stRp68
sg30
g4
((dp69
S'c_rpSM_c'
p70
I533
sS'c_f_t'
p71
I8103
sS'c_rpSE_c'
p72
I5873
sS'c_e_t'
p73
I993
sS'c_e_c'
p74
I6492
sS'c_i_c'
p75
I1151
sS'c_rpSE_t'
p76
I211
sS'c_f_c'
p77
I78722
stRp78
sS's'
g4
((dp79
S't_f_c'
p80
I555
sS't_e_t'
p81
I11
sg28
I769
sS't_e_c'
p82
I609
stRp83
sg17
g4
((dp84
S'c_rpSM_c'
p85
I678
sS'c_rpE_t'
p86
I3
sS'c_f_t'
p87
I919
sS'c_rpSE_c'
p88
I158
sS'c_e_t'
p89
I45
sS'c_rpE_c'
p90
I29
sS't_e_c'
p91
I1
sS'c_e_c'
p92
I417
sS'c_i_c'
p93
I160
sS'c_rpSE_t'
p94
I5
sS'c_f_c'
p95
I9658
stRp96
sg31
g4
((dp97
S'c_e_c'
p98
I5144
sS'c_f_t'
p99
I4153
sS'c_f_c'
p100
I13601
sS'c_e_t'
p101
I209
stRp102
sS'c_e_c'
p103
g4
((dp104
S'c_rpE_t'
p105
I6
sS't_f_t'
p106
I1
sS'c_f_t'
p107
I1444
sS'c_e_t'
p108
I3983
sS't_f_c'
p109
I1
sS'c_rpE_c'
p110
I71
sS'c_e_c'
p111
I11823
sS'c_f_c'
p112
I30530
stRp113
sS'c_i_c'
p114
g4
((dp115
g41
I4113
sS'c_i_c'
p116
I2666
sg11
I2384
sS'c_rpSE_t'
p117
I100
stRp118
sg76
g4
((dp119
S't_f_c'
p120
I524
sS't_e_t'
p121
I5
sS't_e_c'
p122
I85
sS't_f_t'
p123
I157
stRp124
sg100
g4
((dp125
S'c_rpSM_c'
p126
I9056
sS'c_rpE_t'
p127
I26
sS't_f_t'
p128
I1
sg34
I99098
sS'c_rpSE_c'
p129
I15984
sS'c_e_t'
p130
I3057
sS't_f_c'
p131
I3
sS'c_rpE_c'
p132
I220
sg103
I22725
sg114
I4852
sS'c_rpSE_t'
p133
I408
sS'c_f_c'
p134
I702354
stRp135
s.