cnltk.probability
ConditionalFreqDist
p1
(tRp2
S't_nn_c_keep'
p3
cnltk.probability
FreqDist
p4
((dp5
S'c_nn_t_keep'
p6
I20
sS'c_nn_c_keep'
p7
I6
stRp8
sS't_ad_c_keep'
p9
g4
((dp10
S'c_ad_c_keep'
p11
I322
sS'c_ad_t_keep'
p12
I52
stRp13
sS't_bf_c_keep'
p14
g4
((dp15
S'c_bf_t_keep'
p16
I17
sS'c_bf_c_keep'
p17
I314
stRp18
sS'c_h_c_keep'
p19
g4
((dp20
S'c_h_c_keep'
p21
I1776
sS'c_h_t_keep'
p22
I1024
stRp23
sS't_b_c_take'
p24
g4
((dp25
S'c_b_c_keep'
p26
I211
sS'c_b_t_keep'
p27
I1432
stRp28
sS't_no_t_keep'
p29
g4
((dp30
S't_no_c_keep'
p31
I1
stRp32
sS'c_sd_t_keep'
p33
g4
((dp34
S't_ad_c_keep'
p35
I85
sS't_bf_c_keep'
p36
I11
sS't_b_c_take'
p37
I1107
sS't_t1_c_take'
p38
I1
sS't_fp_c_take'
p39
I4
sS't_b_t_keep'
p40
I140
sS't_bf_c_take'
p41
I248
sS't_sv_t_take'
p42
I3
sS't_b^m_t_take'
p43
I61
sS't_qy_c_take'
p44
I759
sS't_na_c_keep'
p45
I8
sS't_^h_c_keep'
p46
I76
sS't_fa_t_keep'
p47
I2
sS't_qy^d_t_take'
p48
I7
sS't_aa_c_keep'
p49
I36
sS't_bk_t_take'
p50
I310
sS't_qw_c_take'
p51
I360
sS't_bk_c_take'
p52
I340
sS't_qo_c_take'
p53
I31
sS't_fc_c_keep'
p54
I26
sS't_h_c_keep'
p55
I274
sS't_aap_am_t_take'
p56
I2
sS't_qy^d_c_take'
p57
I264
sS't_bh_c_take'
p58
I531
sS't_b_c_keep'
p59
I13
sS't_b^m_c_keep'
p60
I1
sS't_no_c_keep'
p61
I5
sS't_qrr_c_keep'
p62
I3
sS't_qh_t_keep'
p63
I1
sS't_sv_c_take'
p64
I983
sS't_qw^d_c_keep'
p65
I12
sS't_aa_t_take'
p66
I968
sS't_no_c_take'
p67
I4
sS't_ny_c_keep'
p68
I9
sS't_sv_c_keep'
p69
I2916
sS't_qy_c_keep'
p70
I373
sS't_h_c_take'
p71
I30
sS't_ba_t_take'
p72
I372
sS't_ad_t_keep'
p73
I1
sS't_nn_t_keep'
p74
I26
sS't_aa_c_take'
p75
I568
sS't_ft_t_take'
p76
I1
sS't_^2_t_take'
p77
I40
sS't_qy_t_take'
p78
I20
sS't_aa_t_keep'
p79
I52
sS't_bd_c_keep'
p80
I2
sS't_^2_c_keep'
p81
I3
sS't_bf_t_take'
p82
I7
sS't_ar_c_take'
p83
I14
sS't_ft_c_take'
p84
I1
sS't_br_t_take'
p85
I24
sS't_br_t_keep'
p86
I2
sS't_fc_t_take'
p87
I1
sS't_arp_nd_t_keep'
p88
I1
sS't_qo_t_take'
p89
I2
sS't_nn_c_take'
p90
I5
sS't_ba_c_take'
p91
I1766
sS't_bh_t_keep'
p92
I2
sS't_oo_co_cc_c_keep'
p93
I14
sS't_qw^d_c_take'
p94
I6
sS't_fp_t_keep'
p95
I1
sS't_t3_t_keep'
p96
I1
sS't_bh_t_take'
p97
I133
sS't_ad_t_take'
p98
I1
sS't_sd_t_take'
p99
I14
sS't_qh_c_take'
p100
I26
sS't_ar_c_keep'
p101
I12
sS't_fc_c_take'
p102
I13
sS't_qw_c_keep'
p103
I120
sS't_fo_o_fw_"_by_bc_c_keep'
p104
I26
sS't_oo_co_cc_c_take'
p105
I13
sS't_h_t_take'
p106
I1
sS't_na_t_keep'
p107
I4
sS't_bk_t_keep'
p108
I1
sS't_sv_t_keep'
p109
I1
sS't_fo_o_fw_"_by_bc_c_take'
p110
I26
sS't_bf_t_keep'
p111
I1
sS't_qw_t_keep'
p112
I2
sS't_nn_c_keep'
p113
I7
sS't_na_t_take'
p114
I1
sS't_qo_c_keep'
p115
I80
sS't_t3_t_take'
p116
I1
sS't_b_t_take'
p117
I16636
sS't_t1_c_keep'
p118
I36
sS't_t1_t_keep'
p119
I2
sS't_^q_c_take'
p120
I4
sS't_ba_c_keep'
p121
I59
sS't_sd_c_keep'
p122
I28145
sS't_ba_t_keep'
p123
I4
sS't_fo_o_fw_"_by_bc_t_take'
p124
I10
sS't_fp_t_take'
p125
I1
sS't_aap_am_c_keep'
p126
I3
sS't_ft_c_keep'
p127
I2
sS't_fa_c_keep'
p128
I14
sS't_qh_c_keep'
p129
I81
sS't_qw_t_take'
p130
I11
sS't_br_c_take'
p131
I55
sS't_ar_t_keep'
p132
I18
sS't_%_t_keep'
p133
I1447
sS't_^g_t_keep'
p134
I20
sS't_qy_t_keep'
p135
I3
sS't_arp_nd_c_keep'
p136
I2
sS't_%_t_take'
p137
I569
sS't_^h_c_take'
p138
I16
sS't_ad_c_take'
p139
I63
sS't_%_c_keep'
p140
I2048
sS't_bd_c_take'
p141
I17
sS't_na_c_take'
p142
I1
sS't_ar_t_take'
p143
I27
sS't_t3_c_keep'
p144
I9
sS't_fa_c_take'
p145
I3
sS't_aap_am_c_take'
p146
I7
sS't_^q_t_keep'
p147
I10
sS't_sd_t_keep'
p148
I19
sS't_^2_c_take'
p149
I226
sS't_bh_c_keep'
p150
I4
sS't_ny_c_take'
p151
I7
sS't_b^m_c_take'
p152
I144
sS't_br_c_keep'
p153
I1
sS't_t3_c_take'
p154
I11
sS't_^q_c_keep'
p155
I319
sS't_ny_t_keep'
p156
I49
sS't_^g_c_keep'
p157
I6
sS't_fc_t_keep'
p158
I3
sS't_arp_nd_c_take'
p159
I6
sS't_ng_c_take'
p160
I2
sS't_^h_t_take'
p161
I2
sS't_sd_c_take'
p162
I2352
sS't_%_c_take'
p163
I492
sS't_ny_t_take'
p164
I31
sS't_^h_t_keep'
p165
I5
sS't_ng_c_keep'
p166
I4
sS't_arp_nd_t_take'
p167
I2
sS't_fo_o_fw_"_by_bc_t_keep'
p168
I9
sS't_qrr_c_take'
p169
I8
sS't_^g_c_take'
p170
I7
sS't_qy^d_c_keep'
p171
I90
sS't_nn_t_take'
p172
I32
sS't_qy^d_t_keep'
p173
I1
stRp174
sS't_fp_c_take'
p175
g4
((dp176
S'c_fp_t_keep'
p177
I33
sS'c_fp_c_keep'
p178
I20
stRp179
sS't_b_t_keep'
p180
g4
((dp181
S't_ad_c_keep'
p182
I11
sS't_bf_c_keep'
p183
I28
sS't_qw_c_take'
p184
I16
sS't_sv_t_keep'
p185
I1
sS't_fo_o_fw_"_by_bc_c_take'
p186
I12
sS't_b_c_take'
p187
I11
sS't_b_t_take'
p188
I128
sS't_t1_c_take'
p189
I2
sS't_b_t_keep'
p190
I953
sS't_bf_c_take'
p191
I1
sS't_sv_t_take'
p192
I3
sS't_qo_c_keep'
p193
I7
sS't_b^m_t_take'
p194
I15
sS't_qy_c_take'
p195
I44
sS't_na_c_keep'
p196
I2
sS't_^h_c_keep'
p197
I10
sS't_aa_c_keep'
p198
I48
sS't_^q_c_take'
p199
I16
sS't_ba_c_keep'
p200
I128
sS't_qo_c_take'
p201
I23
sS't_sd_c_keep'
p202
I705
sS't_ba_t_keep'
p203
I16
sS't_fc_c_keep'
p204
I5
sS't_h_c_keep'
p205
I5
sS't_aap_am_t_take'
p206
I1
sS't_qy^d_c_take'
p207
I13
sS't_aap_am_c_keep'
p208
I2
sS't_ft_c_keep'
p209
I1
sS't_b_c_keep'
p210
I27
sS't_b^m_c_keep'
p211
I5
sS't_no_c_keep'
p212
I1
sS't_^2_t_keep'
p213
I7
sS't_qh_c_keep'
p214
I3
sS't_br_c_take'
p215
I1
sS't_sv_c_take'
p216
I755
sS't_sv_c_keep'
p217
I361
sS't_no_c_take'
p218
I2
sS't_ad_c_take'
p219
I10
sS't_aa_t_take'
p220
I20
sS't_qy_c_keep'
p221
I80
sS't_fc_c_take'
p222
I8
sS't_ba_t_take'
p223
I4
sS't_nn_t_keep'
p224
I1
sS't_aa_c_take'
p225
I11
sS't_%_t_take'
p226
I135
sS't_^h_c_take'
p227
I3
sS't_qy_t_take'
p228
I2
sS't_aa_t_keep'
p229
I83
sS't_%_c_keep'
p230
I131
sS't_^2_c_keep'
p231
I22
sS't_ar_t_take'
p232
I1
sS't_ar_c_take'
p233
I1
sS't_fa_c_take'
p234
I2
sS't_ft_c_take'
p235
I1
sS't_%_t_keep'
p236
I80
sS't_sd_t_keep'
p237
I1
sS't_fc_t_take'
p238
I1
sS't_b^m_t_keep'
p239
I2
sS't_nn_c_take'
p240
I1
sS't_ba_c_take'
p241
I25
sS't_bh_c_keep'
p242
I5
sS't_ny_c_take'
p243
I1
sS't_b^m_c_take'
p244
I2
sS't_t3_c_take'
p245
I3
sS't_^q_c_keep'
p246
I3
sS't_ny_t_keep'
p247
I3
sS't_oo_co_cc_c_keep'
p248
I2
sS't_qw^d_c_take'
p249
I3
sS't_ad_t_take'
p250
I1
sS't_sd_t_take'
p251
I2
sS't_qh_c_take'
p252
I11
sS't_sd_c_take'
p253
I1868
sS't_%_c_take'
p254
I260
sS't_ny_t_take'
p255
I4
sS't_bk_c_keep'
p256
I3
sS't_h_c_take'
p257
I38
sS't_qw_c_keep'
p258
I25
sS't_^2_c_take'
p259
I2
sS't_fo_o_fw_"_by_bc_c_keep'
p260
I3
sS't_oo_co_cc_c_take'
p261
I1
sS't_qy^d_c_keep'
p262
I24
sS't_nn_t_take'
p263
I4
stRp264
sg41
g4
((dp265
S'c_bf_t_keep'
p266
I34
sS'c_bf_c_keep'
p267
I416
stRp268
sS'c_t3_t_keep'
p269
g4
((dp270
S't_sd_c_keep'
p271
I22
sS't_ad_c_keep'
p272
I1
sS't_h_c_keep'
p273
I1
sS't_%_c_keep'
p274
I2
sS't_b_t_take'
p275
I2
sS't_t3_t_keep'
p276
I9
sS't_b_t_keep'
p277
I3
sS't_t3_c_keep'
p278
I25
sS't_sd_c_take'
p279
I3
sS't_%_c_take'
p280
I3
sS't_sv_c_take'
p281
I4
sS't_sd_t_keep'
p282
I1
sS't_qy_c_take'
p283
I1
sS't_^h_c_keep'
p284
I1
sS't_fa_t_keep'
p285
I1
sS't_%_t_keep'
p286
I2
sS't_qw_c_keep'
p287
I2
sS't_fa_c_keep'
p288
I1
stRp289
sg192
g4
((dp290
S't_sd_c_take'
p291
I5
sS't_%_c_keep'
p292
I1
sS't_sv_c_take'
p293
I2
sS't_sv_c_keep'
p294
I1
sS't_sd_c_keep'
p295
I1
sS't_sv_t_keep'
p296
I1
sS't_b_t_take'
p297
I2
stRp298
sg43
g4
((dp299
S't_%_t_keep'
p300
I7
sS't_aa_c_take'
p301
I1
sS't_na_t_keep'
p302
I1
sS't_qw_c_take'
p303
I3
sS't_sd_c_keep'
p304
I53
sS't_b_c_take'
p305
I1
sS't_aa_t_keep'
p306
I4
sS't_%_c_keep'
p307
I9
sS't_b_t_take'
p308
I12
sS't_ar_t_take'
p309
I1
sS't_bf_c_take'
p310
I1
sS't_br_t_take'
p311
I1
sS't_qo_c_keep'
p312
I2
sS't_b^m_t_take'
p313
I4
sS't_qy_c_take'
p314
I5
sS't_^h_c_keep'
p315
I1
sS't_b_t_keep'
p316
I27
sS't_aa_c_keep'
p317
I1
sS't_sv_c_keep'
p318
I25
sS't_bk_t_keep'
p319
I5
sS't_nn_c_take'
p320
I1
sS't_ba_c_take'
p321
I2
sS't_ba_c_keep'
p322
I7
sS't_qo_c_take'
p323
I1
sS't_bh_t_keep'
p324
I2
sS't_ba_t_keep'
p325
I2
sS't_sd_c_take'
p326
I43
sS't_%_t_take'
p327
I3
sS't_qy^d_c_take'
p328
I2
sS't_fa_c_keep'
p329
I1
sS't_b^m_c_keep'
p330
I1
sS't_sd_t_take'
p331
I2
sS't_qy^d_c_keep'
p332
I2
sS't_qh_c_keep'
p333
I1
sS't_%_c_take'
p334
I3
sS't_sv_c_take'
p335
I12
sS't_aa_t_take'
p336
I3
sS't_ny_t_take'
p337
I3
sS't_bk_c_keep'
p338
I2
sS't_ad_c_take'
p339
I2
sS't_qw_c_keep'
p340
I3
sS't_no_c_take'
p341
I1
sS't_b^m_t_keep'
p342
I1
sS't_ny_c_keep'
p343
I1
sS't_br_t_keep'
p344
I1
sS't_qy_c_keep'
p345
I11
sS't_fc_c_take'
p346
I2
sS't_fp_c_keep'
p347
I1
sS't_nn_t_take'
p348
I3
stRp349
sS't_h_t_keep'
p350
g4
((dp351
S't_bh_c_take'
p352
I1
stRp353
sS't_qy_c_take'
p354
g4
((dp355
S'c_qy_c_keep'
p356
I1998
sS'c_qy_t_keep'
p357
I128
stRp358
sS't_na_c_keep'
p359
g4
((dp360
S'c_na_c_keep'
p361
I52
sS'c_na_t_keep'
p362
I21
stRp363
sS't_^h_c_keep'
p364
g4
((dp365
S'c_^h_t_keep'
p366
I50
sS'c_^h_c_keep'
p367
I208
stRp368
sS't_fa_t_keep'
p369
g4
((dp370
S't_sd_c_take'
p371
I1
sS't_bd_c_take'
p372
I2
sS't_sv_c_keep'
p373
I1
sS't_sd_c_keep'
p374
I3
sS't_qy_c_take'
p375
I1
sS't_ba_t_take'
p376
I1
stRp377
sS't_qy^d_t_take'
p378
g4
((dp379
S't_na_t_take'
p380
I1
sS't_ny_t_take'
p381
I8
sS't_ng_c_take'
p382
I1
sS't_qy^d_c_keep'
p383
I1
sS't_na_c_take'
p384
I1
sS't_sd_t_take'
p385
I1
sS't_h_c_take'
p386
I1
sS't_nn_t_take'
p387
I1
stRp388
sS't_aa_c_keep'
p389
g4
((dp390
S'c_aa_c_keep'
p391
I616
sS'c_aa_t_keep'
p392
I896
stRp393
sS't_aap_am_t_keep'
p394
g4
((dp395
S't_aa_t_take'
p396
I1
sS't_%_c_keep'
p397
I1
stRp398
sg50
g4
((dp399
S't_ad_c_keep'
p400
I8
sS't_bf_c_keep'
p401
I3
sS't_qw_c_take'
p402
I5
sS't_%_t_take'
p403
I9
sS't_fo_o_fw_"_by_bc_c_take'
p404
I1
sS't_b_c_take'
p405
I2
sS't_^h_c_take'
p406
I1
sS't_ad_c_take'
p407
I1
sS't_%_c_keep'
p408
I11
sS't_b_t_take'
p409
I23
sS't_na_t_take'
p410
I1
sS't_b^m_t_take'
p411
I1
sS't_qy_c_take'
p412
I8
sS't_^h_c_keep'
p413
I1
sS't_t1_c_keep'
p414
I1
sS't_b_t_keep'
p415
I23
sS't_aa_c_keep'
p416
I1
sS't_b^m_t_keep'
p417
I1
sS't_bk_t_keep'
p418
I26
sS't_ba_c_keep'
p419
I8
sS't_bh_c_keep'
p420
I2
sS't_sd_c_keep'
p421
I72
sS't_ba_t_keep'
p422
I3
sS't_fc_c_keep'
p423
I1
sS't_h_c_keep'
p424
I2
sS't_qy^d_c_take'
p425
I1
sS't_ft_c_keep'
p426
I1
sS't_b_c_keep'
p427
I2
sS't_qw^d_c_take'
p428
I1
sS't_qy^d_c_keep'
p429
I10
sS't_sd_c_take'
p430
I168
sS't_%_c_take'
p431
I24
sS't_sv_c_take'
p432
I24
sS't_sv_c_keep'
p433
I17
sS't_ny_t_take'
p434
I2
sS't_bk_c_keep'
p435
I7
sS't_qw_c_keep'
p436
I9
sS't_%_t_keep'
p437
I9
sS't_aa_t_keep'
p438
I1
sS't_ny_c_keep'
p439
I1
sS't_br_t_keep'
p440
I1
sS't_oo_co_cc_c_take'
p441
I1
sS't_qo_c_take'
p442
I4
sS't_qy_c_keep'
p443
I21
sS't_ba_t_take'
p444
I1
sS't_nn_t_take'
p445
I1
stRp446
sS't_qw_c_take'
p447
g4
((dp448
S'c_qw_t_keep'
p449
I31
sS'c_qw_c_keep'
p450
I890
stRp451
sS'c_qo_c_keep'
p452
g4
((dp453
S'c_qo_t_keep'
p454
I530
sS'c_qo_c_keep'
p455
I2500
stRp456
sg52
g4
((dp457
S'c_bk_t_keep'
p458
I376
sS'c_bk_c_keep'
p459
I80
stRp460
sg201
g4
((dp461
S'c_qo_t_keep'
p462
I1
sS'c_qo_c_keep'
p463
I280
stRp464
sS'c_fc_t_keep'
p465
g4
((dp466
S't_%_t_take'
p467
I5
sS't_aa_c_take'
p468
I1
sS't_ad_c_keep'
p469
I2
sS't_fc_c_keep'
p470
I283
sS't_ft_t_take'
p471
I1
sS't_qw_c_take'
p472
I1
sS't_sd_c_keep'
p473
I1
sS't_fc_t_keep'
p474
I97
sS't_ft_c_keep'
p475
I2
sS't_ad_c_take'
p476
I2
sS't_%_c_keep'
p477
I13
sS't_fc_t_take'
p478
I463
sS't_%_c_take'
p479
I8
sS't_sd_c_take'
p480
I4
sS't_ft_c_take'
p481
I9
sS't_sv_c_keep'
p482
I5
sS't_qy_c_take'
p483
I2
sS't_b_t_take'
p484
I5
sS't_fc_c_take'
p485
I492
sS't_b_t_keep'
p486
I1
sS't_%_t_keep'
p487
I14
sS't_ft_t_keep'
p488
I2
sS't_oo_co_cc_c_take'
p489
I1
sS't_qy_c_keep'
p490
I4
sS't_qw_c_keep'
p491
I3
stRp492
sS't_fc_c_keep'
p493
g4
((dp494
S'c_fc_c_keep'
p495
I555
sS'c_fc_t_keep'
p496
I135
stRp497
sS't_sv_t_keep'
p498
g4
((dp499
S't_sv_c_take'
p500
I1
sS't_sv_c_keep'
p501
I4
sS't_sd_c_keep'
p502
I3
sS't_sv_t_keep'
p503
I2
sS't_b_t_take'
p504
I1
sS't_%_t_keep'
p505
I1
sS't_%_c_keep'
p506
I1
sS't_aa_t_take'
p507
I3
sS't_ba_c_take'
p508
I1
stRp509
sS't_fa_t_take'
p510
g4
((dp511
S't_fo_o_fw_"_by_bc_t_keep'
p512
I1
sS't_sv_c_take'
p513
I1
stRp514
sg55
g4
((dp515
g19
I686
sS'c_h_t_keep'
p516
I12
stRp517
sS'c_t1_c_keep'
p518
g4
((dp519
S'c_t1_t_keep'
p520
I89
sS'c_t1_c_keep'
p521
I295
stRp522
sg474
g4
((dp523
S't_sd_c_take'
p524
I1
sS't_ft_c_take'
p525
I1
sS't_fc_c_keep'
p526
I29
sS't_sd_t_keep'
p527
I1
sS't_%_t_take'
p528
I1
sS't_b_t_take'
p529
I1
sS't_fc_t_take'
p530
I114
sS't_%_t_keep'
p531
I2
sS't_ft_t_keep'
p532
I1
sS't_fc_t_keep'
p533
I19
sS't_fc_c_take'
p534
I33
stRp535
sg57
g4
((dp536
S'c_qy^d_t_keep'
p537
I41
sS'c_qy^d_c_keep'
p538
I539
stRp539
sg58
g4
((dp540
S'c_bh_c_keep'
p541
I267
sS'c_bh_t_keep'
p542
I399
stRp543
sS't_b_c_keep'
p544
g4
((dp545
S'c_b_c_keep'
p546
I26
sS'c_b_t_keep'
p547
I257
stRp548
sS't_b^m_c_keep'
p549
g4
((dp550
S'c_b^m_t_keep'
p551
I20
sS'c_b^m_c_keep'
p552
I34
stRp553
sS't_no_c_keep'
p554
g4
((dp555
S'c_no_t_keep'
p556
I2
sS'c_no_c_keep'
p557
I34
stRp558
sS't_^2_t_keep'
p559
g4
((dp560
S't_sd_c_take'
p561
I2
sS't_%_c_take'
p562
I2
sS't_fa_c_take'
p563
I1
sS't_sv_c_take'
p564
I1
sS't_bf_c_keep'
p565
I1
sS't_aa_t_take'
p566
I3
sS't_sd_c_keep'
p567
I1
sS't_b_t_take'
p568
I2
sS't_b_t_keep'
p569
I5
sS't_%_t_keep'
p570
I2
sS't_aa_t_keep'
p571
I1
sS't_^2_c_keep'
p572
I1
stRp573
sS'c_ny_c_keep'
p574
g4
((dp575
S'c_ny_c_keep'
p576
I25
sS'c_ny_t_keep'
p577
I31
stRp578
sS't_ng_c_keep'
p579
g4
((dp580
S'c_ng_t_keep'
p581
I20
sS'c_ng_c_keep'
p582
I25
stRp583
sg26
g4
((dp584
S'c_b_c_keep'
p585
I163
sS'c_b_t_keep'
p586
I237
stRp587
sS't_qrr_c_keep'
p588
g4
((dp589
S'c_qrr_c_keep'
p590
I162
sS'c_qrr_t_keep'
p591
I1
stRp592
sS't_qo_t_take'
p593
g4
((dp594
S't_sd_c_take'
p595
I1
sS't_qy_c_keep'
p596
I2
stRp597
sS't_qh_t_keep'
p598
g4
((dp599
S't_sv_c_keep'
p600
I2
sS't_sd_c_keep'
p601
I1
sS't_qh_t_keep'
p602
I1
stRp603
sS't_sv_c_take'
p604
g4
((dp605
S'c_sv_c_keep'
p606
I8205
sS'c_sv_t_keep'
p607
I130
stRp608
sS't_qw^d_c_keep'
p609
g4
((dp610
S'c_qw^d_t_keep'
p611
I2
sS'c_qw^d_c_keep'
p612
I35
stRp613
sS't_aa_t_take'
p614
g4
((dp615
S't_ad_c_keep'
p616
I9
sS't_bf_c_keep'
p617
I42
sS't_qw_c_take'
p618
I6
sS't_sv_t_keep'
p619
I1
sS't_fo_o_fw_"_by_bc_c_take'
p620
I2
sS't_b_c_take'
p621
I7
sS't_b_t_take'
p622
I65
sS't_b_t_keep'
p623
I55
sS't_bf_c_take'
p624
I9
sS't_qo_c_keep'
p625
I5
sS't_b^m_t_take'
p626
I9
sg354
I29
sS't_aa_c_keep'
p627
I559
sS't_^h_c_keep'
p628
I5
sS't_t1_c_keep'
p629
I2
sS't_t3_t_take'
p630
I2
sS't_^q_c_take'
p631
I1
sS't_bk_t_take'
p632
I5
sS't_bk_c_take'
p633
I3
sS't_qo_c_take'
p634
I3
sS't_%_t_take'
p635
I29
sS't_ba_t_keep'
p636
I8
sS't_fc_c_keep'
p637
I10
sS't_fa_t_take'
p638
I1
sS't_h_c_keep'
p639
I6
sS't_fp_t_take'
p640
I1
sS't_qy^d_c_take'
p641
I5
sS't_aap_am_c_keep'
p642
I12
sS't_ft_c_keep'
p643
I2
sS't_bh_c_take'
p644
I1
sS't_b_c_keep'
p645
I2
sS't_b^m_c_keep'
p646
I11
sS't_no_c_keep'
p647
I1
sS't_qh_c_keep'
p648
I5
sS't_sv_c_take'
p649
I193
sS't_qw^d_c_keep'
p650
I1
sS't_sv_c_keep'
p651
I752
sS't_ar_t_keep'
p652
I3
sS't_%_t_keep'
p653
I60
sS't_b^m_t_keep'
p654
I1
sS't_aa_t_take'
p655
I15
sS't_qy_c_keep'
p656
I32
sS't_arp_nd_c_keep'
p657
I1
sS't_h_c_take'
p658
I5
sS't_ba_t_take'
p659
I5
sS't_ad_t_keep'
p660
I1
sS't_nn_t_keep'
p661
I1
sS't_aa_c_take'
p662
I3
sS't_ba_c_keep'
p663
I62
sS't_ft_t_take'
p664
I1
sS't_sd_c_keep'
p665
I911
sS't_aa_t_keep'
p666
I869
sS't_%_c_keep'
p667
I137
sS't_bd_c_keep'
p668
I2
sS't_^2_c_keep'
p669
I8
sS't_ar_c_take'
p670
I1
sS't_fa_c_take'
p671
I1
sS't_ft_c_take'
p672
I2
sS't_sd_t_keep'
p673
I6
sS't_fc_t_take'
p674
I1
sS't_ft_t_keep'
p675
I1
sS't_ba_c_take'
p676
I15
sS't_bh_c_keep'
p677
I2
sS't_ar_c_keep'
p678
I1
sS't_b^m_c_take'
p679
I1
sS't_t3_c_take'
p680
I2
sS't_^q_c_keep'
p681
I9
sS't_oo_co_cc_c_keep'
p682
I1
sS't_fp_t_keep'
p683
I2
sS't_t3_t_keep'
p684
I1
sS't_qh_c_take'
p685
I1
sS't_sd_c_take'
p686
I178
sS't_%_c_take'
p687
I47
sS't_ny_t_take'
p688
I1
sS't_ad_c_take'
p689
I9
sS't_fc_c_take'
p690
I4
sS't_qw_c_keep'
p691
I14
sS't_fo_o_fw_"_by_bc_t_keep'
p692
I1
sS't_fo_o_fw_"_by_bc_c_keep'
p693
I5
sS't_oo_co_cc_c_take'
p694
I2
sS't_qy^d_c_keep'
p695
I7
stRp696
sS'c_nn_t_keep'
p697
g4
((dp698
S't_nn_t_keep'
p699
I11
sS't_ng_c_keep'
p700
I4
sS't_nn_c_keep'
p701
I1
sS't_bk_c_take'
p702
I2
sS't_sd_c_keep'
p703
I126
sS't_b_c_keep'
p704
I1
sS't_ny_t_keep'
p705
I1
sS't_%_c_keep'
p706
I6
sS't_b_t_take'
p707
I4
sS't_bd_c_keep'
p708
I1
sS't_bh_t_take'
p709
I1
sS't_qh_c_keep'
p710
I1
sS't_sd_c_take'
p711
I6
sS't_%_c_take'
p712
I1
sS't_sv_c_take'
p713
I1
sS't_b^m_t_take'
p714
I3
sS't_^h_c_keep'
p715
I2
sS't_%_t_keep'
p716
I5
sS't_qrr_c_take'
p717
I1
sS't_ny_c_keep'
p718
I1
sS't_sv_c_keep'
p719
I8
sS't_bk_t_take'
p720
I3
sS't_ba_c_take'
p721
I1
stRp722
sS'c_fa_t_keep'
p723
g4
((dp724
S't_bk_c_take'
p725
I1
sS't_qo_c_take'
p726
I1
sg9
I4
sS't_fc_c_keep'
p727
I2
sS't_qw_c_take'
p728
I1
sS't_sd_c_keep'
p729
I14
sS't_sv_c_keep'
p730
I1
sS't_fa_c_keep'
p731
I1
sS't_bd_c_take'
p732
I17
sS't_no_c_keep'
p733
I1
sS't_sd_c_take'
p734
I5
sS't_bd_t_take'
p735
I3
sS't_b^m_t_take'
p736
I1
sS't_b_t_take'
p737
I4
sS't_%_t_keep'
p738
I2
sS't_aa_t_take'
p739
I1
sS't_qy_c_keep'
p740
I1
sS't_bk_t_take'
p741
I1
sS't_fc_c_take'
p742
I1
sS't_nn_t_take'
p743
I1
stRp744
sS'c_^q_t_keep'
p745
g4
((dp746
S't_aa_c_take'
p747
I18
sS't_qw_c_take'
p748
I4
sS't_sd_c_keep'
p749
I164
sS't_b_c_take'
p750
I3
sS't_ad_c_take'
p751
I1
sS't_%_c_keep'
p752
I15
sS't_nn_c_keep'
p753
I1
sS't_ar_c_take'
p754
I1
sS't_bf_c_take'
p755
I2
sS't_br_t_take'
p756
I1
sS't_^q_t_keep'
p757
I6
sS't_qy_c_take'
p758
I8
sS't_^2_c_take'
p759
I1
sS't_b_t_take'
p760
I183
sS't_b_t_keep'
p761
I4
sS't_^q_c_take'
p762
I5
sS't_bk_t_take'
p763
I1
sS't_ba_c_take'
p764
I15
sS't_bh_c_keep'
p765
I1
sS't_%_t_take'
p766
I3
sS't_sd_c_take'
p767
I17
sS't_b^m_c_take'
p768
I1
sS't_h_c_keep'
p769
I2
sS't_^q_c_keep'
p770
I233
sS't_qy^d_c_take'
p771
I1
sS't_aa_t_take'
p772
I30
sS't_sd_t_take'
p773
I1
sS't_qh_c_take'
p774
I2
sS't_qh_c_keep'
p775
I4
sS't_%_c_take'
p776
I5
sS't_qh_t_keep'
p777
I1
sS't_sv_c_take'
p778
I15
sS't_sv_c_keep'
p779
I54
sS't_ny_t_take'
p780
I1
sS't_qw_c_keep'
p781
I1
sS't_%_t_keep'
p782
I17
sS't_^g_t_keep'
p783
I1
sS't_fo_o_fw_"_by_bc_c_keep'
p784
I1
sS't_qy_c_keep'
p785
I5
sS't_ba_t_take'
p786
I1
stRp787
sS't_no_c_take'
p788
g4
((dp789
S'c_no_t_keep'
p790
I7
sS'c_no_c_keep'
p791
I197
stRp792
sS't_b^m_t_keep'
p793
g4
((dp794
S't_sd_c_take'
p795
I6
sS't_sv_c_take'
p796
I1
sS't_sv_c_keep'
p797
I1
sS't_bk_t_keep'
p798
I1
sS't_sd_c_keep'
p799
I4
sS't_na_c_keep'
p800
I1
sS't_b_t_take'
p801
I2
sS't_b_t_keep'
p802
I7
sS't_%_t_keep'
p803
I1
sS't_aa_t_take'
p804
I1
sS't_qy_c_keep'
p805
I1
sS't_qw_c_keep'
p806
I1
sS't_nn_t_take'
p807
I2
stRp808
sg68
g4
((dp809
S'c_ny_c_keep'
p810
I8
sS'c_ny_t_keep'
p811
I37
stRp812
sg69
g4
((dp813
S'c_sv_c_keep'
p814
I13830
sS'c_sv_t_keep'
p815
I283
stRp816
sS'c_qy^d_t_keep'
p817
g4
((dp818
S't_aa_c_take'
p819
I3
sS't_bf_c_keep'
p820
I1
sS't_bk_t_keep'
p821
I2
sS't_sd_c_keep'
p822
I57
sS't_no_t_take'
p823
I1
sS't_b_c_take'
p824
I2
sS't_^h_c_take'
p825
I1
sS't_qy_t_take'
p826
I1
sS't_ad_c_take'
p827
I1
sS't_%_c_keep'
p828
I14
sS't_na_c_take'
p829
I89
sS't_ar_t_take'
p830
I1
sS't_na_t_take'
p831
I32
sS't_br_t_take'
p832
I6
sS't_qy_c_take'
p833
I8
sS't_^2_c_take'
p834
I3
sS't_b_t_take'
p835
I28
sS't_t1_c_keep'
p836
I1
sS't_b_t_keep'
p837
I9
sS't_qy^d_c_keep'
p838
I23
sS't_no_c_take'
p839
I18
sS't_nn_c_take'
p840
I13
sS't_ba_c_take'
p841
I4
sS't_qo_c_take'
p842
I2
sS't_ny_c_take'
p843
I34
sS't_fo_o_fw_"_by_bc_t_take'
p844
I2
sS't_h_c_keep'
p845
I2
sS't_%_t_take'
p846
I12
sS't_%_c_take'
p847
I11
sS't_qy^d_c_take'
p848
I2
sS't_oo_co_cc_c_keep'
p849
I1
sS't_^g_c_keep'
p850
I1
sS't_bh_c_take'
p851
I1
sS't_aap_am_c_take'
p852
I1
sS't_arp_nd_c_take'
p853
I27
sS't_ng_c_take'
p854
I30
sS't_sd_t_take'
p855
I1
sS't_^h_t_take'
p856
I1
sS't_sd_c_take'
p857
I57
sS't_qrr_c_keep'
p858
I8
sS't_qw_t_take'
p859
I1
sS't_br_c_take'
p860
I2
sS't_sv_c_take'
p861
I8
sS't_aa_t_take'
p862
I3
sS't_ny_t_take'
p863
I337
sS't_bk_c_keep'
p864
I2
sS't_qw_c_keep'
p865
I2
sS't_%_t_keep'
p866
I37
sS't_^g_t_keep'
p867
I3
sS't_aa_t_keep'
p868
I1
sS't_sv_c_keep'
p869
I11
sS't_qy_c_keep'
p870
I22
sS't_h_c_take'
p871
I1
sS't_nn_t_take'
p872
I101
stRp873
sg541
g4
((dp874
S'c_bh_c_keep'
p875
I160
sS'c_bh_t_keep'
p876
I312
stRp877
sS't_qy_c_keep'
p878
g4
((dp879
S'c_qy_c_keep'
p880
I1931
sS'c_qy_t_keep'
p881
I50
stRp882
sg876
g4
((dp883
S't_nn_t_keep'
p884
I1
sS't_t1_c_take'
p885
I1
sS't_bf_c_keep'
p886
I2
sS't_qw_c_take'
p887
I2
sS't_sd_c_keep'
p888
I42
sS't_qo_c_take'
p889
I3
sS't_qy_t_take'
p890
I2
sS't_aa_t_keep'
p891
I2
sS't_%_c_keep'
p892
I10
sS't_qw_t_keep'
p893
I1
sS't_na_c_take'
p894
I11
sS't_na_t_take'
p895
I1
sS't_%_t_keep'
p896
I5
sS't_qo_c_keep'
p897
I1
sS't_qy_c_take'
p898
I5
sS't_b_t_take'
p899
I11
sS't_b_t_keep'
p900
I32
sS't_aa_c_keep'
p901
I1
sS't_^q_c_take'
p902
I1
sS't_bk_t_keep'
p903
I3
sS't_nn_c_take'
p904
I1
sS't_ba_c_take'
p905
I2
sS't_ba_c_keep'
p906
I10
sS't_bh_c_keep'
p907
I3
sS't_bh_t_keep'
p908
I2
sS't_ba_t_keep'
p909
I5
sS't_%_t_take'
p910
I9
sS't_ny_c_take'
p911
I24
sS't_qy^d_c_take'
p912
I2
sS't_ng_c_take'
p913
I1
sS't_qy_c_keep'
p914
I13
sS't_sd_c_take'
p915
I180
sS't_%_c_take'
p916
I17
sS't_sv_c_take'
p917
I21
sS't_sv_c_keep'
p918
I13
sS't_ny_t_take'
p919
I262
sS't_qw_c_keep'
p920
I10
sS't_no_c_take'
p921
I1
sS't_aa_t_take'
p922
I7
sS't_oo_co_cc_c_take'
p923
I1
sS't_qy^d_c_keep'
p924
I2
sS't_h_c_take'
p925
I1
sS't_nn_t_take'
p926
I14
stRp927
sS't_fc_c_take'
p928
g4
((dp929
S'c_fc_c_keep'
p930
I528
sS'c_fc_t_keep'
p931
I246
stRp932
sg72
g4
((dp933
S't_aa_c_take'
p934
I4
sS't_ad_c_keep'
p935
I3
sS't_bf_c_keep'
p936
I5
sS't_qw_c_take'
p937
I2
sS't_sd_c_keep'
p938
I25
sS't_fo_o_fw_"_by_bc_c_take'
p939
I1
sS't_b_c_take'
p940
I5
sS't_^h_c_take'
p941
I1
sS't_ad_c_take'
p942
I4
sS't_%_c_keep'
p943
I12
sS't_b_t_take'
p944
I26
sS't_bd_c_keep'
p945
I1
sS't_^2_c_keep'
p946
I1
sS't_na_c_take'
p947
I1
sS't_sd_c_take'
p948
I190
sS't_qy_c_take'
p949
I7
sS't_^h_c_keep'
p950
I1
sS't_b_t_keep'
p951
I33
sS't_aa_c_keep'
p952
I3
sS't_^q_c_take'
p953
I2
sS't_ba_c_take'
p954
I1
sS't_ba_c_keep'
p955
I24
sS't_bh_c_keep'
p956
I3
sS't_%_t_take'
p957
I7
sS't_ba_t_keep'
p958
I16
sS't_fc_c_keep'
p959
I2
sS't_h_c_keep'
p960
I1
sS't_b_c_keep'
p961
I3
sS't_ng_c_take'
p962
I1
sS't_qy_c_keep'
p963
I12
sS't_qh_c_keep'
p964
I1
sS't_%_c_take'
p965
I26
sS't_sv_c_take'
p966
I29
sS't_sv_c_keep'
p967
I29
sS't_ny_t_take'
p968
I1
sS't_fc_c_take'
p969
I1
sS't_qw_c_keep'
p970
I9
sS't_%_t_keep'
p971
I8
sS't_aa_t_keep'
p972
I6
sS't_aa_t_take'
p973
I2
sS't_qy^d_c_keep'
p974
I4
sS't_h_c_take'
p975
I2
sS't_nn_t_take'
p976
I1
stRp977
sS't_qw_t_keep'
p978
g4
((dp979
S't_sd_c_take'
p980
I3
sS't_qw_t_take'
p981
I1
sS't_qw_c_take'
p982
I1
sS't_br_c_keep'
p983
I1
sS't_qy_c_keep'
p984
I1
sS't_nn_t_take'
p985
I1
stRp986
sS't_ad_t_keep'
p987
g4
((dp988
S't_ad_t_keep'
p989
I1
sS't_br_c_take'
p990
I1
sS't_b^m_t_take'
p991
I1
sS't_sv_c_keep'
p992
I1
sS't_sd_c_keep'
p993
I2
sS't_ba_t_take'
p994
I1
stRp995
sS't_nn_t_keep'
p996
g4
((dp997
S't_nn_t_keep'
p998
I43
sS't_ng_c_keep'
p999
I3
sS't_bk_c_take'
p1000
I2
sS't_qw_c_take'
p1001
I1
sS't_sd_c_keep'
p1002
I137
sS't_%_t_take'
p1003
I2
sS't_%_c_take'
p1004
I5
sS't_qy^d_c_take'
p1005
I3
sS't_ad_c_take'
p1006
I1
sS't_%_c_keep'
p1007
I4
sS't_aa_t_take'
p1008
I1
sS't_bh_t_take'
p1009
I2
sS't_no_c_keep'
p1010
I1
sS't_qh_c_keep'
p1011
I1
sS't_sd_c_take'
p1012
I17
sS't_bf_c_take'
p1013
I1
sS't_sv_c_take'
p1014
I8
sS't_b^m_t_take'
p1015
I3
sS't_sd_t_keep'
p1016
I1
sS't_qy_c_take'
p1017
I1
sS't_b_t_take'
p1018
I7
sS't_b_t_keep'
p1019
I1
sS't_%_t_keep'
p1020
I4
sS't_ba_t_take'
p1021
I4
sS't_sv_c_keep'
p1022
I9
sS't_qy_c_keep'
p1023
I1
sS't_nn_t_take'
p1024
I2
sS't_bk_t_take'
p1025
I4
sS't_fc_c_take'
p1026
I1
sS't_nn_c_take'
p1027
I1
sS't_ba_c_take'
p1028
I3
stRp1029
sg75
g4
((dp1030
S'c_aa_c_keep'
p1031
I840
sS'c_aa_t_keep'
p1032
I1254
stRp1033
sS'c_^h_c_keep'
p1034
g4
((dp1035
S'c_^h_t_keep'
p1036
I383
sS'c_^h_c_keep'
p1037
I1110
stRp1038
sS'c_^g_t_keep'
p1039
g4
((dp1040
S't_sd_c_take'
p1041
I4
sS't_na_t_take'
p1042
I1
sS't_ny_c_take'
p1043
I3
sS't_sv_c_take'
p1044
I1
sS't_ny_t_take'
p1045
I10
sS't_sd_c_keep'
p1046
I4
sS't_b_t_take'
p1047
I1
sS't_b_t_keep'
p1048
I2
sS't_%_t_keep'
p1049
I1
sS't_ng_c_keep'
p1050
I1
sS't_%_c_keep'
p1051
I1
sS't_qw_t_keep'
p1052
I1
sS't_qy_c_keep'
p1053
I1
sS't_na_c_take'
p1054
I4
stRp1055
sS't_sd_c_keep'
p1056
g4
((dp1057
S'c_sd_c_keep'
p1058
I43633
sS'c_sd_t_keep'
p1059
I826
stRp1060
sS'c_no_t_keep'
p1061
g4
((dp1062
S't_nn_t_keep'
p1063
I1
sS't_nn_c_keep'
p1064
I1
sS't_ad_c_keep'
p1065
I2
sS't_na_t_keep'
p1066
I1
sS't_sd_c_keep'
p1067
I93
sS't_qy_t_take'
p1068
I1
sS't_ng_c_keep'
p1069
I2
sS't_%_c_keep'
p1070
I11
sS't_aa_c_take'
p1071
I1
sS't_aap_am_c_take'
p1072
I1
sS't_b^m_t_take'
p1073
I2
sS't_qy_c_take'
p1074
I4
sS't_b_t_take'
p1075
I26
sS't_b_t_keep'
p1076
I1
sS't_no_c_take'
p1077
I1
sS't_bk_t_take'
p1078
I2
sS't_ba_c_take'
p1079
I1
sS't_bk_c_take'
p1080
I1
sS't_bh_c_keep'
p1081
I1
sS't_ny_c_take'
p1082
I1
sS't_sd_c_take'
p1083
I10
sS't_b^m_c_take'
p1084
I1
sS't_qy_c_keep'
p1085
I2
sS't_h_c_keep'
p1086
I1
sS't_ny_t_keep'
p1087
I1
sS't_bh_c_take'
p1088
I1
sS't_fa_c_keep'
p1089
I1
sS't_arp_nd_c_take'
p1090
I1
sS't_bh_t_take'
p1091
I1
sg29
I1
sg554
I7
sS't_^h_t_take'
p1092
I1
sS't_qh_c_take'
p1093
I1
sS't_qy^d_c_take'
p1094
I1
sS't_%_c_take'
p1095
I6
sS't_sv_c_take'
p1096
I9
sS't_sv_c_keep'
p1097
I28
sS't_qw_c_keep'
p1098
I2
sS't_%_t_keep'
p1099
I3
sS't_qrr_c_take'
p1100
I1
sS't_ny_c_keep'
p1101
I1
sS't_aa_t_take'
p1102
I1
sS't_qy^d_c_keep'
p1103
I1
sS't_arp_nd_c_keep'
p1104
I1
sS't_fc_c_take'
p1105
I1
stRp1106
sg666
g4
((dp1107
S't_ad_c_keep'
p1108
I5
sg14
I20
sS't_qw_c_take'
p1109
I4
sS't_sv_t_keep'
p1110
I1
sS't_fo_o_fw_"_by_bc_c_take'
p1111
I1
sS't_b_c_take'
p1112
I7
sS't_b_t_take'
p1113
I71
sS't_bf_c_take'
p1114
I5
sS't_qo_c_keep'
p1115
I2
sS't_b^m_t_take'
p1116
I16
sS't_qy_c_take'
p1117
I12
sS't_bf_t_keep'
p1118
I1
sS't_^h_c_keep'
p1119
I2
sS't_aa_c_keep'
p1120
I175
sS't_aap_am_t_keep'
p1121
I1
sS't_^q_c_take'
p1122
I3
sS't_bk_t_take'
p1123
I1
sS't_bk_c_take'
p1124
I1
sS't_qo_c_take'
p1125
I6
sS't_sd_c_keep'
p1126
I378
sS't_ba_t_keep'
p1127
I1
sS't_fc_c_keep'
p1128
I3
sS't_h_c_keep'
p1129
I4
sS't_fp_t_take'
p1130
I1
sS't_qy^d_c_take'
p1131
I4
sS't_aap_am_c_keep'
p1132
I3
sS't_bh_c_take'
p1133
I1
sS't_b_c_keep'
p1134
I1
sS't_b^m_c_keep'
p1135
I1
sS't_qh_c_keep'
p1136
I2
sS't_sv_c_take'
p1137
I222
sS't_sv_c_keep'
p1138
I341
sS't_ar_t_keep'
p1139
I1
sS't_%_t_keep'
p1140
I48
sS't_aa_t_keep'
p1141
I269
sS't_aa_t_take'
p1142
I11
sS't_qy_c_keep'
p1143
I9
sS't_arp_nd_c_keep'
p1144
I1
sS't_h_c_take'
p1145
I6
sg987
I1
sS't_aa_c_take'
p1146
I2
sS't_ba_c_keep'
p1147
I20
sS't_%_t_take'
p1148
I39
sS't_ad_c_take'
p1149
I4
sS't_%_c_keep'
p1150
I53
sS't_bd_c_keep'
p1151
I1
sS't_^2_c_keep'
p1152
I8
sS't_fa_c_take'
p1153
I1
sS't_b_t_keep'
p1154
I43
sS't_ba_c_take'
p1155
I11
sS't_b^m_c_take'
p1156
I1
sS't_na_t_take'
p1157
I1
sS't_ny_t_keep'
p1158
I1
sS't_qw^d_c_take'
p1159
I1
sS't_sd_t_take'
p1160
I2
sS't_qh_c_take'
p1161
I8
sS't_sd_c_take'
p1162
I181
sS't_%_c_take'
p1163
I35
sS't_ny_t_take'
p1164
I1
sS't_fc_c_take'
p1165
I3
sS't_qw_c_keep'
p1166
I3
sS't_fo_o_fw_"_by_bc_t_keep'
p1167
I1
sS't_fo_o_fw_"_by_bc_c_keep'
p1168
I1
sS't_qy^d_c_keep'
p1169
I3
stRp1170
sg80
g4
((dp1171
S'c_bd_t_keep'
p1172
I15
sS'c_bd_c_keep'
p1173
I6
stRp1174
sg1152
g4
((dp1175
S'c_^2_t_keep'
p1176
I27
sS'c_^2_c_keep'
p1177
I140
stRp1178
sg82
g4
((dp1179
S't_sd_c_take'
p1180
I1
sS't_qo_c_take'
p1181
I1
sS't_aa_c_take'
p1182
I1
sS't_sv_c_take'
p1183
I2
sS't_aa_t_take'
p1184
I3
sS't_sd_c_keep'
p1185
I1
sS't_b_t_keep'
p1186
I3
sS't_aa_t_keep'
p1187
I1
stRp1188
sS'c_aap_am_c_keep'
p1189
g4
((dp1190
S'c_aap_am_c_keep'
p1191
I203
sS'c_aap_am_t_keep'
p1192
I67
stRp1193
sS't_ar_c_take'
p1194
g4
((dp1195
S'c_ar_t_keep'
p1196
I36
sS'c_ar_c_keep'
p1197
I51
stRp1198
sS't_t3_t_take'
p1199
g4
((dp1200
S't_%_c_take'
p1201
I1
sS't_sd_c_keep'
p1202
I3
sS't_h_c_take'
p1203
I1
sS't_t3_c_keep'
p1204
I1
stRp1205
sg1197
g4
((dp1206
S'c_ar_t_keep'
p1207
I86
sS'c_ar_c_keep'
p1208
I313
stRp1209
sg85
g4
((dp1210
S't_nn_t_keep'
p1211
I3
sS't_qo_c_take'
p1212
I1
sS't_sd_c_keep'
p1213
I1
sS't_sd_c_take'
p1214
I19
sS't_qw_c_take'
p1215
I7
sS't_%_t_take'
p1216
I2
sS't_%_c_take'
p1217
I1
sS't_ny_t_keep'
p1218
I1
sS't_qy_t_take'
p1219
I1
sS't_b_c_keep'
p1220
I1
sS't_na_c_take'
p1221
I1
sS't_sd_t_take'
p1222
I1
sS't_qy^d_c_take'
p1223
I3
sS't_bf_c_take'
p1224
I1
sS't_sv_c_take'
p1225
I8
sS't_aa_t_take'
p1226
I3
sS't_ny_t_take'
p1227
I6
sS't_qy_c_take'
p1228
I12
sS't_b_t_take'
p1229
I1
sS't_b_t_keep'
p1230
I3
sS't_qy_c_keep'
p1231
I1
sS't_qw_c_keep'
p1232
I1
stRp1233
sg86
g4
((dp1234
S't_b_t_keep'
p1235
I1
sS't_sd_c_take'
p1236
I3
sS't_aa_t_keep'
p1237
I1
sS't_sv_c_take'
p1238
I2
sS't_sd_c_keep'
p1239
I2
sS't_b_t_take'
p1240
I1
stRp1241
sS'c_^g_c_keep'
p1242
g4
((dp1243
g1039
I8
sS'c_^g_c_keep'
p1244
I4
stRp1245
sS'c_sv_t_keep'
p1246
g4
((dp1247
S't_^h_t_keep'
p1248
I1
sS't_ad_c_keep'
p1249
I37
sS't_bf_c_keep'
p1250
I6
sS't_bk_t_keep'
p1251
I1
sS't_sv_t_keep'
p1252
I4
sS't_fo_o_fw_"_by_bc_c_take'
p1253
I9
sg24
I211
sS't_b_t_take'
p1254
I5653
sS't_nn_c_keep'
p1255
I1
sS't_bf_c_take'
p1256
I64
sS't_qo_c_keep'
p1257
I29
sS't_b^m_t_take'
p1258
I6
sS't_qy_c_take'
p1259
I164
sS't_na_c_keep'
p1260
I5
sS't_^h_c_keep'
p1261
I18
sS't_t1_c_keep'
p1262
I7
sg378
I2
sS't_aa_c_keep'
p1263
I38
sS't_arp_nd_t_take'
p1264
I4
sS't_^q_c_take'
p1265
I4
sS't_bk_t_take'
p1266
I13
sS't_qw_c_take'
p1267
I57
sS't_%_t_keep'
p1268
I503
sS't_bk_c_take'
p1269
I10
sS't_qo_c_take'
p1270
I19
sS't_sd_c_keep'
p1271
I2549
sS't_ba_t_keep'
p1272
I4
sS't_fc_c_keep'
p1273
I21
sS't_h_c_keep'
p1274
I164
sS't_br_c_keep'
p1275
I1
sS't_%_c_take'
p1276
I255
sS't_aap_am_t_take'
p1277
I5
sS't_qy^d_c_take'
p1278
I27
sS't_aap_am_c_keep'
p1279
I1
sS't_bh_c_take'
p1280
I42
sS't_b_c_keep'
p1281
I3
sS't_^g_c_take'
p1282
I1
sS't_qh_c_keep'
p1283
I70
sS't_qrr_c_keep'
p1284
I1
sS't_qw_t_take'
p1285
I2
sS't_br_c_take'
p1286
I18
sS't_sv_c_take'
p1287
I804
sS't_qw^d_c_keep'
p1288
I3
sg614
I2054
sS't_ar_t_keep'
p1289
I4
sS't_no_c_take'
p1290
I1
sS't_^g_t_keep'
p1291
I9
sS't_ad_c_take'
p1292
I16
sS't_sv_c_keep'
p1293
I5420
sS't_qy_c_keep'
p1294
I136
sS't_qy_t_keep'
p1295
I3
sS't_arp_nd_c_keep'
p1296
I1
sS't_h_c_take'
p1297
I19
sS't_ba_t_take'
p1298
I43
sS't_nn_t_keep'
p1299
I4
sS't_bd_c_take'
p1300
I10
sS't_aa_c_take'
p1301
I1065
sS't_ba_c_keep'
p1302
I29
sS't_ft_t_take'
p1303
I1
sS't_^2_t_take'
p1304
I12
sS't_^h_c_take'
p1305
I8
sS't_qy_t_take'
p1306
I1
sS't_aa_t_keep'
p1307
I57
sS't_%_c_keep'
p1308
I729
sS't_^2_c_keep'
p1309
I1
sS't_bf_t_take'
p1310
I3
sS't_ar_t_take'
p1311
I22
sS't_ar_c_take'
p1312
I31
sS't_na_c_take'
p1313
I2
sS't_ft_c_take'
p1314
I3
sS't_br_t_take'
p1315
I6
sS't_^q_t_keep'
p1316
I3
sS't_br_t_keep'
p1317
I1
sS't_sd_t_keep'
p1318
I2
sS't_fo_o_fw_"_by_bc_t_keep'
p1319
I3
sS't_b_t_keep'
p1320
I87
sS't_arp_nd_t_keep'
p1321
I1
sS't_nn_c_take'
p1322
I1
sS't_ba_c_take'
p1323
I254
sS't_bh_c_keep'
p1324
I3
sS't_ny_c_take'
p1325
I2
sS't_b^m_c_take'
p1326
I21
sS't_fo_o_fw_"_by_bc_t_take'
p1327
I3
sS't_t3_c_take'
p1328
I4
sS't_%_t_take'
p1329
I193
sS't_^q_c_keep'
p1330
I80
sS't_ny_t_keep'
p1331
I4
sS't_nn_t_take'
p1332
I3
sS't_oo_co_cc_c_keep'
p1333
I2
sS't_fa_c_take'
p1334
I1
sS't_qw^d_c_take'
p1335
I4
sS't_arp_nd_c_take'
p1336
I6
sS't_bh_t_take'
p1337
I21
sS't_sd_t_take'
p1338
I2
sS't_qh_c_take'
p1339
I22
sS't_sd_c_take'
p1340
I827
sS't_ar_c_keep'
p1341
I5
sS't_bd_t_take'
p1342
I1
sS't_ny_t_take'
p1343
I8
sS't_aap_am_c_take'
p1344
I24
sS't_fc_c_take'
p1345
I12
sS't_qw_c_keep'
p1346
I39
sS't_^2_c_take'
p1347
I109
sS't_^g_c_keep'
p1348
I12
sS't_fo_o_fw_"_by_bc_c_keep'
p1349
I18
sS't_oo_co_cc_c_take'
p1350
I4
sS't_qy^d_c_keep'
p1351
I30
sS't_qy^d_t_keep'
p1352
I1
sS't_fa_c_keep'
p1353
I3
stRp1354
sg478
g4
((dp1355
S't_fc_t_take'
p1356
I170
sS't_ft_c_take'
p1357
I2
sS't_fc_c_keep'
p1358
I202
sS't_bf_c_keep'
p1359
I1
sS't_sv_c_keep'
p1360
I1
sS't_sd_c_keep'
p1361
I2
sS't_fc_t_keep'
p1362
I118
sS't_qw_c_keep'
p1363
I1
sS't_%_t_keep'
p1364
I5
sS't_ft_c_keep'
p1365
I2
sS't_%_c_keep'
p1366
I3
sg928
I72
stRp1367
sg171
g4
((dp1368
S'c_qy^d_t_keep'
p1369
I8
sS'c_qy^d_c_keep'
p1370
I457
stRp1371
sg606
g4
((dp1372
S'c_sv_c_keep'
p1373
I226309
sg1246
I22035
stRp1374
sS't_arp_nd_t_keep'
p1375
g4
((dp1376
S't_%_t_keep'
p1377
I1
sS't_sd_c_keep'
p1378
I1
sS't_sv_c_keep'
p1379
I1
stRp1380
sg552
g4
((dp1381
S'c_b^m_t_keep'
p1382
I157
sS'c_b^m_c_keep'
p1383
I148
stRp1384
sg1032
g4
((dp1385
S't_ad_c_keep'
p1386
I8
sS't_bf_c_keep'
p1387
I11
sS't_qw_c_take'
p1388
I11
sS't_fo_o_fw_"_by_bc_c_take'
p1389
I5
sS't_b_c_take'
p1390
I11
sS't_b_t_take'
p1391
I193
sS't_b_t_keep'
p1392
I78
sS't_bf_c_take'
p1393
I5
sS't_sv_t_take'
p1394
I1
sS't_qo_c_keep'
p1395
I7
sS't_b^m_t_take'
p1396
I3
sS't_qy_c_take'
p1397
I24
sg364
I6
sS't_aa_c_keep'
p1398
I357
sS't_^q_c_take'
p1399
I6
sS't_bk_t_take'
p1400
I1
sS't_bk_c_take'
p1401
I1
sS't_qo_c_take'
p1402
I3
sS't_sd_c_keep'
p1403
I647
sS't_ba_t_keep'
p1404
I2
sS't_fc_c_keep'
p1405
I14
sS't_h_c_keep'
p1406
I13
sS't_fo_o_fw_"_by_bc_t_take'
p1407
I1
sS't_qy^d_c_take'
p1408
I3
sS't_aap_am_c_keep'
p1409
I2
sS't_ft_c_keep'
p1410
I1
sS't_bh_c_take'
p1411
I2
sS't_b_c_keep'
p1412
I8
sS't_b^m_c_keep'
p1413
I1
sS't_qh_c_keep'
p1414
I7
sS't_br_c_take'
p1415
I2
sS't_sv_c_take'
p1416
I402
sS't_qw^d_c_keep'
p1417
I1
sS't_sv_c_keep'
p1418
I527
sS't_ar_t_keep'
p1419
I1
sS't_%_t_keep'
p1420
I67
sS't_b^m_t_keep'
p1421
I3
sS't_aa_t_take'
p1422
I25
sS't_qy_c_keep'
p1423
I41
sS't_arp_nd_c_keep'
p1424
I1
sS't_h_c_take'
p1425
I13
sS't_ba_t_take'
p1426
I4
sS't_aa_c_take'
p1427
I13
sS't_ba_c_keep'
p1428
I33
sS't_%_t_take'
p1429
I67
sS't_^h_c_take'
p1430
I6
sS't_ad_c_take'
p1431
I9
sS't_%_c_keep'
p1432
I131
sS't_^2_c_keep'
p1433
I7
sS't_ar_t_take'
p1434
I1
sS't_ar_c_take'
p1435
I2
sS't_ft_c_take'
p1436
I2
sS't_^h_t_keep'
p1437
I1
sS't_sd_t_keep'
p1438
I3
sS't_aa_t_keep'
p1439
I212
sS't_fc_t_take'
p1440
I5
sS't_ba_c_take'
p1441
I13
sS't_bh_c_keep'
p1442
I4
sS't_ar_c_keep'
p1443
I1
sS't_b^m_c_take'
p1444
I1
sS't_t3_c_take'
p1445
I1
sS't_^q_c_keep'
p1446
I2
sS't_oo_co_cc_c_keep'
p1447
I1
sS't_t3_t_keep'
p1448
I1
sS't_sd_t_take'
p1449
I1
sS't_qh_c_take'
p1450
I11
sS't_sd_c_take'
p1451
I401
sS't_%_c_take'
p1452
I108
sS't_ny_t_take'
p1453
I1
sS't_fc_c_take'
p1454
I14
sS't_qw_c_keep'
p1455
I15
sS't_fo_o_fw_"_by_bc_c_keep'
p1456
I2
sS't_oo_co_cc_c_take'
p1457
I4
sS't_qy^d_c_keep'
p1458
I11
sS't_nn_t_take'
p1459
I1
stRp1460
sS't_nn_c_take'
p1461
g4
((dp1462
g697
I147
sS'c_nn_c_keep'
p1463
I18
stRp1464
sg91
g4
((dp1465
S'c_ba_c_keep'
p1466
I1359
sS'c_ba_t_keep'
p1467
I1213
stRp1468
sg495
g4
((dp1469
S'c_fc_c_keep'
p1470
I3843
sg465
I1083
stRp1471
sS't_^q_t_take'
p1472
g4
((dp1473
S't_^q_t_keep'
p1474
I1
sS't_^q_c_keep'
p1475
I1
stRp1476
sg908
g4
((dp1477
S't_ar_c_take'
p1478
I1
sS't_%_c_take'
p1479
I2
sS't_ny_c_take'
p1480
I1
sS't_sd_c_take'
p1481
I7
sS't_bk_t_keep'
p1482
I1
sS't_sd_c_keep'
p1483
I5
sS't_ba_c_keep'
p1484
I1
sS't_b_t_keep'
p1485
I1
sS't_ad_t_take'
p1486
I1
sS't_sv_c_take'
p1487
I1
stRp1488
sS'c_ft_c_keep'
p1489
g4
((dp1490
S'c_ft_c_keep'
p1491
I42
sS'c_ft_t_keep'
p1492
I30
stRp1493
sS'c_arp_nd_c_keep'
p1494
g4
((dp1495
S'c_arp_nd_t_keep'
p1496
I164
sS'c_arp_nd_c_keep'
p1497
I1092
stRp1498
sS't_oo_co_cc_c_keep'
p1499
g4
((dp1500
S'c_oo_co_cc_t_keep'
p1501
I1
sS'c_oo_co_cc_c_keep'
p1502
I45
stRp1503
sg94
g4
((dp1504
S'c_qw^d_t_keep'
p1505
I1
sS'c_qw^d_c_keep'
p1506
I34
stRp1507
sS't_fp_t_keep'
p1508
g4
((dp1509
S't_sd_c_keep'
p1510
I1
sS't_fo_o_fw_"_by_bc_t_take'
p1511
I1
sS't_fp_t_take'
p1512
I1
sS't_fp_c_keep'
p1513
I1
sS't_b_c_take'
p1514
I1
stRp1515
sg684
g4
((dp1516
S't_sd_c_take'
p1517
I1
sS't_sv_c_keep'
p1518
I2
sS't_%_t_keep'
p1519
I1
sS't_%_c_keep'
p1520
I1
sS't_fa_c_keep'
p1521
I1
sS't_t3_t_keep'
p1522
I1
sS't_bh_c_take'
p1523
I1
sS't_t3_c_keep'
p1524
I7
stRp1525
sg1337
g4
((dp1526
S't_ba_c_keep'
p1527
I3
sS't_qo_c_take'
p1528
I1
sS't_bh_t_keep'
p1529
I2
sS't_ba_t_keep'
p1530
I2
sS't_h_c_keep'
p1531
I1
sS't_qw_c_take'
p1532
I1
sS't_sd_c_keep'
p1533
I9
sS't_%_t_take'
p1534
I4
sS't_ny_c_take'
p1535
I3
sS't_^h_c_take'
p1536
I1
sS't_aa_t_keep'
p1537
I1
sS't_%_c_keep'
p1538
I1
sS't_b_c_keep'
p1539
I1
sS't_qw_c_keep'
p1540
I3
sS't_sd_t_take'
p1541
I1
sS't_sd_c_take'
p1542
I40
sS't_%_c_take'
p1543
I7
sS't_sv_c_take'
p1544
I6
sS't_sv_c_keep'
p1545
I7
sS't_ny_t_take'
p1546
I61
sS't_qy_c_take'
p1547
I3
sS't_b_t_take'
p1548
I4
sS't_fc_c_take'
p1549
I1
sS't_b_t_keep'
p1550
I7
sS't_%_t_keep'
p1551
I3
sS't_bh_c_take'
p1552
I1
sS't_qy_c_keep'
p1553
I7
sS't_h_c_take'
p1554
I1
sS't_nn_t_take'
p1555
I1
stRp1556
sS't_ad_t_take'
p1557
g4
((dp1558
S't_nn_t_keep'
p1559
I1
sS't_oo_co_cc_c_keep'
p1560
I1
sS't_ad_c_keep'
p1561
I1
sS't_sv_c_take'
p1562
I1
sS't_sv_c_keep'
p1563
I2
sS't_qw_c_take'
p1564
I1
sS't_fc_c_take'
p1565
I1
stRp1566
sg99
g4
((dp1567
S't_qw_c_take'
p1568
I2
sS't_sd_c_keep'
p1569
I19
sS't_b_c_take'
p1570
I1
sS't_qy_t_take'
p1571
I2
sS't_aa_t_keep'
p1572
I2
sS't_bf_c_take'
p1573
I1
sS't_br_t_take'
p1574
I1
sS't_b^m_t_take'
p1575
I16
sS't_sd_t_keep'
p1576
I4
sS't_qy_c_take'
p1577
I2
sS't_b_t_take'
p1578
I13
sS't_b_t_keep'
p1579
I4
sS't_bk_t_take'
p1580
I3
sS't_nn_c_take'
p1581
I1
sS't_ba_c_take'
p1582
I5
sS't_bk_c_take'
p1583
I7
sS't_^2_t_take'
p1584
I1
sS't_b^m_c_take'
p1585
I3
sS't_ny_t_keep'
p1586
I2
sS't_bh_c_take'
p1587
I1
sS't_qw^d_c_take'
p1588
I1
sS't_bh_t_take'
p1589
I1
sS't_sd_t_take'
p1590
I1
sS't_qy_c_keep'
p1591
I2
sS't_sd_c_take'
p1592
I19
sS't_%_c_take'
p1593
I2
sS't_sv_c_take'
p1594
I6
sS't_aa_t_take'
p1595
I2
sS't_ny_t_take'
p1596
I2
sS't_qw_c_keep'
p1597
I1
sS't_%_t_keep'
p1598
I2
sS't_^g_t_keep'
p1599
I1
sS't_sv_c_keep'
p1600
I1
sS't_qy^d_c_keep'
p1601
I1
sS't_fc_c_take'
p1602
I1
stRp1603
sS't_qh_c_take'
p1604
g4
((dp1605
S'c_qh_c_keep'
p1606
I192
sS'c_qh_t_keep'
p1607
I9
stRp1608
sg356
g4
((dp1609
S'c_qy_c_keep'
p1610
I21597
sS'c_qy_t_keep'
p1611
I3929
stRp1612
sS't_ar_c_keep'
p1613
g4
((dp1614
S'c_ar_t_keep'
p1615
I14
sS'c_ar_c_keep'
p1616
I35
stRp1617
sS't_bd_t_take'
p1618
g4
((dp1619
S't_fc_t_take'
p1620
I2
sS't_sd_c_take'
p1621
I1
sS't_ad_c_take'
p1622
I1
sS't_sv_c_take'
p1623
I1
sS't_qw_c_take'
p1624
I1
sS't_sd_c_keep'
p1625
I2
sS't_bd_t_keep'
p1626
I2
stRp1627
sS'c_%_c_keep'
p1628
g4
((dp1629
S'c_%_c_keep'
p1630
I7384
sS'c_%_t_keep'
p1631
I4694
stRp1632
sg590
g4
((dp1633
S'c_qrr_c_keep'
p1634
I990
sS'c_qrr_t_keep'
p1635
I187
stRp1636
sS'c_qw_t_keep'
p1637
g4
((dp1638
S't_t1_c_take'
p1639
I3
sS't_bf_c_keep'
p1640
I1
sS't_bk_t_keep'
p1641
I3
sS't_sv_t_keep'
p1642
I1
sS't_fo_o_fw_"_by_bc_c_take'
p1643
I1
sS't_b_c_take'
p1644
I5
sS't_b_t_take'
p1645
I31
sS't_ad_c_keep'
p1646
I4
sS't_bf_c_take'
p1647
I1
sS't_qo_c_keep'
p1648
I3
sS't_qy_c_take'
p1649
I23
sS't_^h_c_keep'
p1650
I1
sS't_no_c_take'
p1651
I16
sS't_bk_t_take'
p1652
I1
sS't_qw_c_take'
p1653
I7
sS't_bk_c_take'
p1654
I1
sS't_qo_c_take'
p1655
I1
sS't_^2_t_take'
p1656
I1
sS't_h_c_keep'
p1657
I3
sS't_fo_o_fw_"_by_bc_t_take'
p1658
I5
sS't_qy^d_c_take'
p1659
I8
sS't_b_c_keep'
p1660
I1
sS't_qh_c_keep'
p1661
I1
sS't_qrr_c_keep'
p1662
I9
sS't_br_c_take'
p1663
I11
sS't_sv_c_take'
p1664
I65
sS't_qw^d_c_keep'
p1665
I3
sS't_aa_t_take'
p1666
I3
sS't_%_t_keep'
p1667
I11
sS't_^g_t_keep'
p1668
I1
sS't_sv_c_keep'
p1669
I19
sS't_qy_c_keep'
p1670
I108
sS't_qy_t_keep'
p1671
I1
sS't_h_c_take'
p1672
I11
sS't_ba_t_take'
p1673
I2
sS't_aa_c_take'
p1674
I2
sS't_ba_c_keep'
p1675
I3
sS't_sd_c_keep'
p1676
I53
sS't_^h_c_take'
p1677
I46
sS't_ad_c_take'
p1678
I3
sS't_%_c_keep'
p1679
I16
sS't_ar_t_take'
p1680
I1
sS't_fa_c_take'
p1681
I1
sS't_br_t_take'
p1682
I7
sS't_b_t_keep'
p1683
I8
sS't_ba_c_take'
p1684
I9
sS't_ny_c_take'
p1685
I1
sS't_b^m_c_take'
p1686
I6
sS't_%_t_take'
p1687
I19
sS't_na_t_take'
p1688
I1
sS't_arp_nd_c_take'
p1689
I14
sS't_bh_t_take'
p1690
I1
sS't_ad_t_take'
p1691
I1
sS't_sd_t_take'
p1692
I53
sS't_^h_t_take'
p1693
I5
sS't_qh_c_take'
p1694
I3
sS't_sd_c_take'
p1695
I946
sS't_%_c_take'
p1696
I50
sS't_ny_t_take'
p1697
I7
sS't_bk_c_keep'
p1698
I3
sS't_ng_c_keep'
p1699
I1
sS't_qw_c_keep'
p1700
I47
sS't_^2_c_take'
p1701
I1
sS't_fo_o_fw_"_by_bc_c_keep'
p1702
I1
sS't_oo_co_cc_c_take'
p1703
I2
sS't_qy^d_c_keep'
p1704
I17
sS't_qy^d_t_keep'
p1705
I2
sS't_nn_t_take'
p1706
I1
stRp1707
sS'c_na_t_keep'
p1708
g4
((dp1709
S't_nn_t_keep'
p1710
I2
sS't_aa_c_take'
p1711
I1
sS't_ad_c_keep'
p1712
I2
sS't_%_c_take'
p1713
I3
sS't_na_t_keep'
p1714
I1
sS't_qw_c_take'
p1715
I2
sS't_%_t_take'
p1716
I7
sS't_b_c_take'
p1717
I6
sS't_fo_o_fw_"_by_bc_c_keep'
p1718
I1
sS't_ad_c_take'
p1719
I2
sS't_%_c_keep'
p1720
I7
sS't_b_t_take'
p1721
I100
sS't_na_c_take'
p1722
I1
sS't_fc_t_take'
p1723
I1
sS't_bf_c_take'
p1724
I1
sS't_sd_c_take'
p1725
I24
sS't_qo_c_keep'
p1726
I1
sS't_qy_c_take'
p1727
I10
sg359
I16
sS't_^h_c_keep'
p1728
I1
sS't_t1_c_keep'
p1729
I1
sS't_b_t_keep'
p1730
I2
sS't_bk_t_take'
p1731
I24
sS't_ba_c_take'
p1732
I9
sS't_bk_c_take'
p1733
I11
sS't_^2_t_take'
p1734
I1
sS't_fa_t_keep'
p1735
I1
sS't_b^m_c_take'
p1736
I7
sS't_h_c_keep'
p1737
I1
sS't_^q_c_keep'
p1738
I1
sS't_ny_t_keep'
p1739
I47
sS't_aap_am_c_keep'
p1740
I1
sS't_^g_c_keep'
p1741
I1
sS't_bh_c_take'
p1742
I14
sS't_fa_c_keep'
p1743
I1
sS't_bh_t_take'
p1744
I2
sS't_qy^d_c_take'
p1745
I4
sS't_ar_c_keep'
p1746
I1
sS't_qw_t_take'
p1747
I1
sS't_br_c_take'
p1748
I1
sS't_sv_c_take'
p1749
I8
sS't_aa_t_take'
p1750
I3
sS't_ny_t_take'
p1751
I1
sS't_sd_c_keep'
p1752
I204
sS't_fc_c_take'
p1753
I1
sS't_qw_c_keep'
p1754
I1
sS't_%_t_keep'
p1755
I9
sS't_fo_o_fw_"_by_bc_t_keep'
p1756
I1
sS't_sv_c_keep'
p1757
I27
sS't_qy_c_keep'
p1758
I5
sS't_arp_nd_c_keep'
p1759
I1
sS't_h_c_take'
p1760
I1
sS't_ba_t_take'
p1761
I8
stRp1762
sg491
g4
((dp1763
S'c_qw_t_keep'
p1764
I26
sS'c_qw_c_keep'
p1765
I754
stRp1766
sS's'
g4
((dp1767
S't_%_c_take'
p1768
I16
sS't_qo_c_take'
p1769
I49
sS't_sd_c_take'
p1770
I108
sS't_qw_c_take'
p1771
I68
sS't_%_t_take'
p1772
I9
sS't_fo_o_fw_"_by_bc_t_take'
p1773
I335
sS't_fo_o_fw_"_by_bc_c_take'
p1774
I138
sS't_b_c_take'
p1775
I1
sS't_^h_c_take'
p1776
I6
sS't_qy_t_take'
p1777
I4
sS't_ad_c_take'
p1778
I28
sS't_qw^d_c_take'
p1779
I2
sS't_ad_t_take'
p1780
I1
sg175
I18
sS't_qy^d_c_take'
p1781
I10
sS't_bf_c_take'
p1782
I1
sS't_fa_c_take'
p1783
I1
sS't_ft_c_take'
p1784
I1
sS't_br_t_take'
p1785
I2
sS't_ny_t_take'
p1786
I1
sS't_sv_c_take'
p1787
I36
sS't_qy_c_take'
p1788
I92
sS't_b_t_take'
p1789
I2
sS't_fc_c_take'
p1790
I1
sS't_^2_c_take'
p1791
I1
sS't_fp_t_take'
p1792
I34
sS't_oo_co_cc_c_take'
p1793
I3
sS't_h_c_take'
p1794
I4
stRp1795
sg104
g4
((dp1796
S'c_fo_o_fw_"_by_bc_c_keep'
p1797
I75
sS'c_fo_o_fw_"_by_bc_t_keep'
p1798
I25
stRp1799
sS't_oo_co_cc_c_take'
p1800
g4
((dp1801
S'c_oo_co_cc_c_keep'
p1802
I53
stRp1803
sS'c_qh_t_keep'
p1804
g4
((dp1805
S't_nn_t_keep'
p1806
I3
sS't_aa_c_take'
p1807
I25
sS't_%_c_take'
p1808
I9
sS't_qw_c_take'
p1809
I1
sS't_sd_c_keep'
p1810
I70
sS't_b_c_take'
p1811
I7
sS't_%_c_keep'
p1812
I20
sS't_qh_c_keep'
p1813
I31
sS't_ar_c_take'
p1814
I1
sS't_bf_c_take'
p1815
I3
sS't_%_t_keep'
p1816
I8
sS't_sd_t_keep'
p1817
I1
sS't_qy_c_take'
p1818
I3
sS't_^2_c_take'
p1819
I2
sS't_b_t_take'
p1820
I108
sS't_b_t_keep'
p1821
I4
sS't_^q_c_take'
p1822
I1
sS't_ba_c_take'
p1823
I5
sS't_ba_c_keep'
p1824
I1
sS't_ng_c_keep'
p1825
I1
sS't_fc_c_keep'
p1826
I1
sS't_b^m_c_take'
p1827
I1
sS't_h_c_keep'
p1828
I5
sS't_%_t_take'
p1829
I5
sS't_^q_c_keep'
p1830
I3
sS't_ny_t_keep'
p1831
I1
sS't_bh_c_take'
p1832
I1
sS't_b_c_keep'
p1833
I1
sS't_aa_t_take'
p1834
I36
sS't_no_c_keep'
p1835
I1
sS't_qy_c_keep'
p1836
I6
sS't_qh_c_take'
p1837
I4
sS't_sd_c_take'
p1838
I24
sS't_qrr_c_keep'
p1839
I2
sS't_qw_t_take'
p1840
I1
sg598
I1
sS't_sv_c_take'
p1841
I22
sS't_sv_c_keep'
p1842
I64
sS't_ny_t_take'
p1843
I7
sS't_qw_c_keep'
p1844
I4
sS't_no_c_take'
p1845
I3
sS't_^g_t_keep'
p1846
I1
sS't_fo_o_fw_"_by_bc_c_keep'
p1847
I1
sS't_qy^d_c_keep'
p1848
I1
sS't_ba_t_take'
p1849
I2
sS't_nn_t_take'
p1850
I2
stRp1851
sg1173
g4
((dp1852
S'c_bd_t_keep'
p1853
I38
sS'c_bd_c_keep'
p1854
I63
stRp1855
sg1036
g4
((dp1856
S't_nn_c_keep'
p1857
I1
sS't_t1_c_take'
p1858
I1
sS't_na_t_keep'
p1859
I1
sS't_qw_c_take'
p1860
I6
sS't_sd_c_keep'
p1861
I218
sS't_fo_o_fw_"_by_bc_c_take'
p1862
I1
sS't_b_c_take'
p1863
I2
sS't_%_c_keep'
p1864
I25
sS't_^h_c_keep'
p1865
I37
sS't_bf_c_take'
p1866
I1
sS't_qo_c_keep'
p1867
I2
sS't_sd_t_keep'
p1868
I2
sS't_qy_c_take'
p1869
I5
sS't_na_c_keep'
p1870
I6
sS't_b_t_take'
p1871
I17
sS't_t1_c_keep'
p1872
I12
sS't_bk_t_take'
p1873
I1
sS't_ba_c_take'
p1874
I3
sS't_ba_c_keep'
p1875
I1
sS't_qo_c_take'
p1876
I1
sg579
I7
sS't_ba_t_keep'
p1877
I1
sS't_sd_c_take'
p1878
I11
sS't_h_c_keep'
p1879
I2
sS't_^q_c_keep'
p1880
I2
sS't_ny_t_keep'
p1881
I5
sS't_^2_c_take'
p1882
I1
sS't_bh_c_take'
p1883
I2
sS't_bh_t_take'
p1884
I1
sS't_no_c_keep'
p1885
I1
sS't_qy^d_c_keep'
p1886
I6
sS't_qh_c_keep'
p1887
I2
sS't_%_c_take'
p1888
I5
sS't_sv_c_take'
p1889
I1
sS't_qw^d_c_keep'
p1890
I1
sS't_sv_c_keep'
p1891
I25
sS't_ar_t_keep'
p1892
I1
sS't_qw_c_keep'
p1893
I13
sS't_%_t_keep'
p1894
I8
sS't_fo_o_fw_"_by_bc_t_keep'
p1895
I1
sS't_qy_c_keep'
p1896
I18
sS't_arp_nd_c_keep'
p1897
I1
stRp1898
sg106
g4
((dp1899
S't_sd_c_take'
p1900
I1
stRp1901
sg22
g4
((dp1902
S't_aa_c_take'
p1903
I10
sS't_ad_c_keep'
p1904
I5
sS't_na_t_keep'
p1905
I1
sg447
I9
sS't_sd_c_keep'
p1906
I380
sS't_fo_o_fw_"_by_bc_c_take'
p1907
I1
sS't_b_c_take'
p1908
I5
sS't_aa_t_keep'
p1909
I1
sS't_%_c_keep'
p1910
I73
sS't_b_t_take'
p1911
I81
sS't_bd_c_take'
p1912
I1
sS't_ar_t_take'
p1913
I1
sS't_bf_c_take'
p1914
I2
sS't_sd_c_take'
p1915
I43
sS't_sv_t_take'
p1916
I1
sS't_qo_c_keep'
p1917
I3
sg350
I1
sS't_qy_c_take'
p1918
I11
sS't_^h_c_keep'
p1919
I4
sS't_b_t_keep'
p1920
I4
sS't_qy^d_t_take'
p1921
I1
sS't_aa_c_keep'
p1922
I1
sS't_ba_c_take'
p1923
I6
sS't_ba_c_keep'
p1924
I1
sS't_bh_c_keep'
p1925
I1
sS't_%_t_take'
p1926
I6
sS't_^g_t_take'
p1927
I1
sS't_fc_c_keep'
p1928
I1
sS't_h_c_keep'
p1929
I21
sS't_fo_o_fw_"_by_bc_t_take'
p1930
I2
sS't_^q_c_keep'
p1931
I1
sS't_ny_t_keep'
p1932
I1
sS't_aap_am_c_keep'
p1933
I1
sS't_aa_t_take'
p1934
I13
sS't_qy^d_c_take'
p1935
I3
sS't_bh_t_take'
p1936
I1
sS't_qy_c_keep'
p1937
I22
sS't_t3_c_take'
p1938
I1
sS't_qh_c_keep'
p1939
I3
sS't_%_c_take'
p1940
I9
sS't_qw_t_take'
p1941
I1
sS't_br_c_take'
p1942
I1
sS't_sv_c_take'
p1943
I26
sS't_qw^d_c_keep'
p1944
I1
sS't_sv_c_keep'
p1945
I230
sS't_h_c_take'
p1946
I3
sS't_qw_c_keep'
p1947
I14
sS't_%_t_keep'
p1948
I25
sS't_fo_o_fw_"_by_bc_c_keep'
p1949
I1
sS't_oo_co_cc_c_take'
p1950
I2
sS't_qy^d_c_keep'
p1951
I2
sS't_fc_c_take'
p1952
I1
sS't_sd_t_keep'
p1953
I1
stRp1954
sg890
g4
((dp1955
S't_nn_t_keep'
p1956
I1
sS't_ny_c_take'
p1957
I2
sS't_bk_t_keep'
p1958
I1
sS't_sd_c_keep'
p1959
I3
sS't_qy_t_take'
p1960
I1
sS't_na_c_take'
p1961
I1
sS't_sd_c_take'
p1962
I5
sS't_na_t_take'
p1963
I2
sS't_sv_c_keep'
p1964
I2
sS't_ny_t_take'
p1965
I20
sS't_qy_c_take'
p1966
I2
sS't_%_t_keep'
p1967
I1
sS't_qy^d_c_keep'
p1968
I1
sS't_qy_t_keep'
p1969
I1
sS't_bk_t_take'
p1970
I1
sS't_qw_c_take'
p1971
I1
sS't_nn_t_take'
p1972
I2
stRp1973
sS't_na_t_keep'
p1974
g4
((dp1975
S't_sd_c_keep'
p1976
I9
sS't_na_t_keep'
p1977
I1
sS't_%_t_take'
p1978
I1
sS't_ny_t_keep'
p1979
I3
sS't_%_c_keep'
p1980
I3
sS't_^h_c_keep'
p1981
I1
sS't_qy^d_c_take'
p1982
I3
sS't_sd_c_take'
p1983
I3
sS't_%_c_take'
p1984
I1
sS't_sv_c_take'
p1985
I3
sS't_sv_c_keep'
p1986
I4
sS't_qy_c_take'
p1987
I1
sS't_b_t_take'
p1988
I6
sS't_%_t_keep'
p1989
I1
sS't_b^m_t_take'
p1990
I1
sS't_aa_t_take'
p1991
I1
sS't_bk_t_take'
p1992
I3
sS't_ba_c_take'
p1993
I1
stRp1994
sS't_bk_t_keep'
p1995
g4
((dp1996
S't_%_c_take'
p1997
I4
sS't_h_c_keep'
p1998
I1
sS't_ar_c_keep'
p1999
I1
sS't_ad_c_keep'
p2000
I1
sS't_fc_c_keep'
p2001
I2
sS't_bf_c_keep'
p2002
I1
sS't_bk_t_keep'
p2003
I11
sS't_sd_c_keep'
p2004
I18
sS't_na_t_take'
p2005
I1
sS't_ad_c_take'
p2006
I1
sS't_%_c_keep'
p2007
I2
sS't_aa_t_take'
p2008
I2
sS't_qw_c_keep'
p2009
I1
sS't_sd_t_take'
p2010
I1
sS't_qy^d_c_keep'
p2011
I3
sS't_sd_c_take'
p2012
I32
sS't_bf_c_take'
p2013
I1
sS't_sv_c_take'
p2014
I7
sS't_b^m_t_take'
p2015
I1
sS't_qy_c_take'
p2016
I2
sS't_b_t_take'
p2017
I9
sS't_b_t_keep'
p2018
I3
sS't_%_t_keep'
p2019
I1
sS't_sv_c_keep'
p2020
I2
sS't_qy_c_keep'
p2021
I6
sS't_qw_c_take'
p2022
I1
sS't_nn_t_take'
p2023
I1
stRp2024
sS'c_%_t_keep'
p2025
g4
((dp2026
S't_ad_c_keep'
p2027
I24
sS't_bf_c_keep'
p2028
I9
sS't_bk_t_keep'
p2029
I1
sS't_sv_t_keep'
p2030
I1
sS't_fo_o_fw_"_by_bc_c_take'
p2031
I3
sS't_b_c_take'
p2032
I42
sS't_b_t_take'
p2033
I538
sS't_ng_c_take'
p2034
I4
sS't_nn_c_keep'
p2035
I2
sS't_fc_t_take'
p2036
I5
sS't_bf_c_take'
p2037
I36
sS't_qo_c_keep'
p2038
I11
sS't_b^m_t_take'
p2039
I2
sS't_qy_c_take'
p2040
I183
sS't_na_c_keep'
p2041
I5
sS't_^h_c_keep'
p2042
I27
sS't_t1_c_keep'
p2043
I11
sS't_qy^d_t_take'
p2044
I2
sg389
I34
sS't_arp_nd_t_take'
p2045
I1
sS't_^q_c_take'
p2046
I3
sS't_bk_t_take'
p2047
I6
sS't_qw_c_take'
p2048
I60
sS't_%_t_keep'
p2049
I217
sS't_bk_c_take'
p2050
I2
sS't_qo_c_take'
p2051
I14
sS't_^2_t_take'
p2052
I2
sS't_ba_t_keep'
p2053
I5
sS't_fc_c_keep'
p2054
I10
sS't_h_c_keep'
p2055
I107
sS't_br_c_keep'
p2056
I3
sS't_%_c_take'
p2057
I102
sS't_fc_t_keep'
p2058
I1
sS't_qy^d_c_take'
p2059
I56
sS't_aap_am_c_keep'
p2060
I1
sS't_ft_c_keep'
p2061
I1
sS't_bh_c_take'
p2062
I10
sS't_b_c_keep'
p2063
I7
sS't_ny_c_take'
p2064
I6
sS't_no_c_keep'
p2065
I4
sS't_qh_c_keep'
p2066
I32
sS't_qrr_c_keep'
p2067
I1
sS't_qw_t_take'
p2068
I2
sS't_br_c_take'
p2069
I7
sS't_sv_c_take'
p2070
I412
sS't_qw^d_c_keep'
p2071
I6
sS't_aa_t_take'
p2072
I103
sS't_ar_t_keep'
p2073
I4
sS't_no_c_take'
p2074
I4
sS't_b^m_t_keep'
p2075
I1
sS't_ny_c_keep'
p2076
I1
sS't_sv_c_keep'
p2077
I1022
sS't_qy_c_keep'
p2078
I130
sS't_qy_t_keep'
p2079
I1
sS't_arp_nd_c_keep'
p2080
I3
sS't_h_c_take'
p2081
I9
sS't_ba_t_take'
p2082
I10
sS't_nn_t_keep'
p2083
I11
sS't_bk_c_keep'
p2084
I1
sS't_aa_c_take'
p2085
I50
sS't_ba_c_keep'
p2086
I27
sg1056
I2794
sS't_^h_c_take'
p2087
I5
sS't_qy_t_take'
p2088
I1
sS't_aa_t_keep'
p2089
I58
sS't_%_c_keep'
p2090
I377
sS't_^2_c_keep'
p2091
I3
sS't_bf_t_take'
p2092
I1
sS't_ar_t_take'
p2093
I2
sS't_t3_c_keep'
p2094
I2
sS't_ar_c_take'
p2095
I7
sS't_na_c_take'
p2096
I5
sS't_ft_c_take'
p2097
I1
sS't_br_t_take'
p2098
I3
sS't_^q_t_keep'
p2099
I1
sS't_^g_c_take'
p2100
I1
sS't_sd_t_keep'
p2101
I3
sS't_^2_c_take'
p2102
I27
sS't_na_t_keep'
p2103
I1
sS't_b_t_keep'
p2104
I119
sS't_br_t_keep'
p2105
I1
sS't_nn_c_take'
p2106
I4
sS't_ba_c_take'
p2107
I86
sS't_bh_c_keep'
p2108
I3
sS't_bh_t_keep'
p2109
I2
sS't_b^m_c_take'
p2110
I3
sS't_fo_o_fw_"_by_bc_t_take'
p2111
I6
sS't_t3_c_take'
p2112
I1
sS't_%_t_take'
p2113
I65
sS't_^q_c_keep'
p2114
I10
sS't_ny_t_keep'
p2115
I24
sS't_oo_co_cc_c_keep'
p2116
I3
sS't_fa_c_take'
p2117
I3
sS't_qw^d_c_take'
p2118
I2
sS't_arp_nd_c_take'
p2119
I2
sS't_bh_t_take'
p2120
I3
sS't_sd_t_take'
p2121
I5
sS't_qh_c_take'
p2122
I12
sS't_sd_c_take'
p2123
I688
sS't_ar_c_keep'
p2124
I3
sS't_ny_t_take'
p2125
I17
sS't_aap_am_c_take'
p2126
I2
sS't_ad_c_take'
p2127
I8
sS't_ng_c_keep'
p2128
I2
sS't_fc_c_take'
p2129
I16
sS't_qw_c_keep'
p2130
I34
sS't_fo_o_fw_"_by_bc_t_keep'
p2131
I4
sS't_qrr_c_take'
p2132
I3
sS't_fo_o_fw_"_by_bc_c_keep'
p2133
I1
sS't_oo_co_cc_c_take'
p2134
I3
sS't_qy^d_c_keep'
p2135
I32
sS't_nn_t_take'
p2136
I15
sS't_fa_c_keep'
p2137
I1
stRp2138
sg1774
g4
((dp2139
S'c_fo_o_fw_"_by_bc_c_keep'
p2140
I105
sS'c_fo_o_fw_"_by_bc_t_keep'
p2141
I139
stRp2142
sS't_bd_t_keep'
p2143
g4
((dp2144
S't_%_t_keep'
p2145
I1
sS't_bd_t_keep'
p2146
I6
sS't_bd_c_keep'
p2147
I2
sS't_sv_c_keep'
p2148
I1
stRp2149
sg2140
g4
((dp2150
S'c_fo_o_fw_"_by_bc_c_keep'
p2151
I414
sS'c_fo_o_fw_"_by_bc_t_keep'
p2152
I180
stRp2153
sg117
g4
((dp2154
S't_b_t_take'
p2155
I354
sS't_ad_c_keep'
p2156
I33
sS't_bf_c_keep'
p2157
I108
sS't_qw_c_take'
p2158
I87
sg498
I3
sS't_fo_o_fw_"_by_bc_c_take'
p2159
I18
sS't_b_c_take'
p2160
I44
sS't_qw_t_keep'
p2161
I3
sS't_nn_c_keep'
p2162
I1
sS't_t1_c_take'
p2163
I6
sS't_fc_t_take'
p2164
I3
sS't_bf_c_take'
p2165
I16
sS't_sv_t_take'
p2166
I4
sS't_qo_c_keep'
p2167
I27
sS't_b^m_t_take'
p2168
I50
sS't_qy_c_take'
p2169
I201
sS't_na_c_keep'
p2170
I5
sS't_^h_c_keep'
p2171
I16
sS't_t1_c_keep'
p2172
I1
sS't_na_t_keep'
p2173
I2
sS't_aa_c_keep'
p2174
I172
sg394
I1
sS't_bf_t_keep'
p2175
I2
sS't_^q_c_take'
p2176
I77
sS't_bk_t_take'
p2177
I4
sg1995
I19
sS't_%_t_keep'
p2178
I274
sS't_bk_c_take'
p2179
I5
sS't_qo_c_take'
p2180
I68
sS't_^2_t_take'
p2181
I1
sS't_ba_t_keep'
p2182
I81
sg493
I26
sS't_h_c_keep'
p2183
I34
sS't_fo_o_fw_"_by_bc_t_take'
p2184
I12
sS't_%_c_take'
p2185
I1057
sS't_fc_t_keep'
p2186
I4
sS't_qy^d_c_take'
p2187
I53
sS't_aap_am_c_keep'
p2188
I4
sS't_ft_c_keep'
p2189
I4
sS't_bh_c_take'
p2190
I4
sg544
I140
sg549
I24
sS't_ny_c_take'
p2191
I3
sS't_bd_t_keep'
p2192
I1
sg559
I13
sS't_qh_c_keep'
p2193
I24
sS't_qw_t_take'
p2194
I1
sS't_br_c_take'
p2195
I2
sS't_sv_c_take'
p2196
I2980
sg609
I3
sS't_aa_t_take'
p2197
I20
sS't_ar_t_keep'
p2198
I5
sS't_no_c_take'
p2199
I3
sS't_b^m_t_keep'
p2200
I15
sS't_ny_c_keep'
p2201
I6
sS't_sv_c_keep'
p2202
I1101
sS't_qy_c_keep'
p2203
I330
sS't_qy_t_keep'
p2204
I2
sS't_arp_nd_c_keep'
p2205
I6
sS't_fc_c_take'
p2206
I37
sS't_ba_t_take'
p2207
I12
sS't_nn_t_keep'
p2208
I11
sS't_bk_c_keep'
p2209
I13
sS't_aa_c_take'
p2210
I38
sS't_ba_c_keep'
p2211
I401
sS't_sd_c_keep'
p2212
I2369
sS't_bh_c_keep'
p2213
I29
sS't_^h_c_take'
p2214
I24
sS't_bd_c_take'
p2215
I1
sS't_aa_t_keep'
p2216
I283
sS't_%_c_keep'
p2217
I445
sS't_bd_c_keep'
p2218
I4
sS't_^2_c_keep'
p2219
I88
sS't_na_c_take'
p2220
I6
sS't_ar_t_take'
p2221
I7
sS't_t3_c_keep'
p2222
I1
sS't_qh_t_take'
p2223
I1
sS't_ar_c_take'
p2224
I5
sg1199
I2
sS't_ft_c_take'
p2225
I5
sS't_br_t_take'
p2226
I2
sS't_^g_c_take'
p2227
I1
sS't_sd_t_keep'
p2228
I6
sS't_fo_o_fw_"_by_bc_t_keep'
p2229
I4
sg180
I3763
sS't_ft_t_keep'
p2230
I1
sg1375
I1
sS't_nn_c_take'
p2231
I3
sS't_ba_c_take'
p2232
I90
sg1472
I2
sS't_bh_t_keep'
p2233
I4
sS't_^g_t_take'
p2234
I1
sS't_b^m_c_take'
p2235
I7
sS't_br_c_keep'
p2236
I3
sS't_t3_c_take'
p2237
I4
sS't_%_t_take'
p2238
I478
sS't_^q_c_keep'
p2239
I8
sS't_ny_t_keep'
p2240
I15
sS't_nn_t_take'
p2241
I6
sS't_oo_co_cc_c_keep'
p2242
I4
sS't_fa_c_take'
p2243
I2
sS't_aap_am_t_take'
p2244
I1
sS't_qw^d_c_take'
p2245
I5
sS't_arp_nd_c_take'
p2246
I2
sS't_ng_c_take'
p2247
I1
sS't_sd_t_take'
p2248
I10
sS't_^h_t_take'
p2249
I1
sg1604
I66
sS't_sd_c_take'
p2250
I9657
sg1613
I9
sS't_ny_t_take'
p2251
I8
sS't_^h_t_keep'
p2252
I1
sS't_ad_c_take'
p2253
I72
sS't_h_c_take'
p2254
I139
sS't_qw_c_keep'
p2255
I151
sS't_^2_c_take'
p2256
I3
sS't_^g_c_keep'
p2257
I1
sS't_qrr_c_take'
p2258
I3
sS't_fo_o_fw_"_by_bc_c_keep'
p2259
I12
sg1800
I10
sS't_qy^d_c_keep'
p2260
I89
sS't_qy^d_t_keep'
p2261
I1
sS't_fp_c_keep'
p2262
I3
sS't_fa_c_keep'
p2263
I2
stRp2264
sS'c_bf_t_keep'
p2265
g4
((dp2266
S't_nn_t_keep'
p2267
I1
sS't_aa_c_take'
p2268
I55
sS't_bf_c_keep'
p2269
I31
sS't_bk_t_keep'
p2270
I3
sS't_sd_c_keep'
p2271
I30
sS't_b_c_take'
p2272
I2
sS't_aa_t_keep'
p2273
I7
sS't_%_c_keep'
p2274
I9
sS't_^h_c_keep'
p2275
I1
sS't_na_c_take'
p2276
I2
sS't_ar_t_take'
p2277
I1
sg1194
I7
sS't_ar_t_keep'
p2278
I1
sS't_aap_am_c_take'
p2279
I1
sS't_qo_c_keep'
p2280
I1
sS't_qy_c_take'
p2281
I5
sS't_br_t_take'
p2282
I1
sS't_b_t_take'
p2283
I39
sS't_b_t_keep'
p2284
I39
sS't_aa_c_keep'
p2285
I4
sS't_sv_c_keep'
p2286
I19
sS't_^q_c_take'
p2287
I2
sS't_ba_c_take'
p2288
I1
sS't_ba_c_keep'
p2289
I3
sS't_qo_c_take'
p2290
I1
sS't_ny_c_take'
p2291
I2
sS't_^g_t_take'
p2292
I1
sS't_sd_c_take'
p2293
I83
sS't_b^m_c_take'
p2294
I3
sS't_br_c_keep'
p2295
I1
sS't_fo_o_fw_"_by_bc_t_take'
p2296
I1
sS't_%_c_take'
p2297
I14
sS't_aap_am_t_take'
p2298
I1
sS't_aap_am_c_keep'
p2299
I2
sS't_arp_nd_c_take'
p2300
I2
sS't_ng_c_take'
p2301
I1
sS't_no_c_keep'
p2302
I1
sS't_sd_t_take'
p2303
I2
sS't_qy_c_keep'
p2304
I9
sS't_qh_c_take'
p2305
I1
sS't_%_t_take'
p2306
I8
sS't_qh_c_keep'
p2307
I2
sS't_qrr_c_keep'
p2308
I1
sS't_br_c_take'
p2309
I1
sS't_sv_c_take'
p2310
I21
sS't_aa_t_take'
p2311
I297
sS't_ny_t_take'
p2312
I10
sS't_^h_t_keep'
p2313
I1
sS't_qw_c_keep'
p2314
I4
sS't_%_t_keep'
p2315
I32
sS't_^2_c_take'
p2316
I3
sS't_ad_c_take'
p2317
I1
sS't_fo_o_fw_"_by_bc_c_keep'
p2318
I1
sS't_qy^d_c_keep'
p2319
I1
sS't_nn_t_take'
p2320
I2
sS't_^g_t_keep'
p2321
I3
sS't_qy^d_t_keep'
p2322
I1
stRp2323
sg2141
g4
((dp2324
S't_aa_c_take'
p2325
I6
sS't_ad_c_keep'
p2326
I5
sS't_na_t_keep'
p2327
I1
sS't_ft_t_take'
p2328
I1
sS't_qw_c_take'
p2329
I5
sS't_sd_c_keep'
p2330
I87
sS't_fo_o_fw_"_by_bc_c_take'
p2331
I2
sS't_b_c_take'
p2332
I4
sS't_^h_c_take'
p2333
I1
sS't_ad_c_take'
p2334
I3
sS't_%_c_keep'
p2335
I8
sS't_b_t_take'
p2336
I39
sS't_bd_c_take'
p2337
I2
sS't_na_c_take'
p2338
I1
sS't_sd_c_take'
p2339
I27
sS't_ft_c_take'
p2340
I2
sS't_^h_t_keep'
p2341
I1
sS't_qo_c_keep'
p2342
I8
sS't_qy_c_take'
p2343
I3
sS't_^h_c_keep'
p2344
I5
sS't_b_t_keep'
p2345
I2
sS't_aa_c_keep'
p2346
I1
sS't_sv_c_keep'
p2347
I27
sS't_ba_c_take'
p2348
I3
sS't_bk_c_take'
p2349
I1
sS't_qo_c_take'
p2350
I2
sS't_%_t_take'
p2351
I3
sS't_fc_c_keep'
p2352
I4
sS't_fo_o_fw_"_by_bc_t_take'
p2353
I7
sS't_fp_t_take'
p2354
I1
sS't_oo_co_cc_c_keep'
p2355
I1
sS't_qy_c_keep'
p2356
I20
sS't_qh_c_keep'
p2357
I2
sS't_%_c_take'
p2358
I4
sS't_br_c_take'
p2359
I2
sS't_sv_c_take'
p2360
I9
sS't_aa_t_take'
p2361
I11
sS't_ny_t_take'
p2362
I2
sS't_qw_c_keep'
p2363
I11
sS't_%_t_keep'
p2364
I5
sS't_fo_o_fw_"_by_bc_t_keep'
p2365
I1
sS't_aa_t_keep'
p2366
I1
sS't_fo_o_fw_"_by_bc_c_keep'
p2367
I9
sS't_qy^d_c_keep'
p2368
I1
sS't_fc_c_take'
p2369
I1
sS't_fp_c_keep'
p2370
I2
stRp2371
sS'c_ng_t_keep'
p2372
g4
((dp2373
S't_nn_t_keep'
p2374
I16
sS't_ng_c_keep'
p2375
I6
sS't_nn_c_keep'
p2376
I1
sS't_bk_c_take'
p2377
I9
sS't_b^m_c_take'
p2378
I4
sS't_sd_c_keep'
p2379
I121
sS't_br_c_keep'
p2380
I1
sS't_fo_o_fw_"_by_bc_c_take'
p2381
I1
sS't_b_c_take'
p2382
I3
sS't_qy^d_c_take'
p2383
I1
sS't_ft_c_keep'
p2384
I1
sS't_%_c_keep'
p2385
I7
sS't_qw^d_c_take'
p2386
I1
sS't_qh_c_keep'
p2387
I1
sS't_sd_c_take'
p2388
I12
sS't_%_c_take'
p2389
I1
sS't_sv_c_take'
p2390
I2
sS't_b^m_t_take'
p2391
I1
sS't_qy_c_take'
p2392
I5
sS't_b_t_take'
p2393
I36
sS't_qw_c_keep'
p2394
I4
sS't_%_t_keep'
p2395
I6
sS't_^2_c_take'
p2396
I1
sS't_sv_c_keep'
p2397
I10
sS't_bh_c_take'
p2398
I3
sS't_qy^d_c_keep'
p2399
I1
sS't_bk_t_take'
p2400
I6
sS't_ba_c_take'
p2401
I2
stRp2402
sg1177
g4
((dp2403
S'c_^2_t_keep'
p2404
I457
sS'c_^2_c_keep'
p2405
I1107
stRp2406
sS'c_ng_c_keep'
p2407
g4
((dp2408
g2372
I216
sS'c_ng_c_keep'
p2409
I923
stRp2410
sS'c_t3_c_keep'
p2411
g4
((dp2412
S'c_t3_c_keep'
p2413
I187
sg269
I69
stRp2414
sS'c_aap_am_t_keep'
p2415
g4
((dp2416
S't_ba_c_keep'
p2417
I1
sS't_aa_c_take'
p2418
I1
sS't_bf_c_keep'
p2419
I1
sS't_sd_c_keep'
p2420
I19
sS't_b_c_take'
p2421
I1
sS't_ny_t_keep'
p2422
I1
sS't_aap_am_c_keep'
p2423
I4
sS't_ad_c_take'
p2424
I1
sS't_%_c_keep'
p2425
I2
sS't_no_c_keep'
p2426
I1
sS't_sd_c_take'
p2427
I9
sS't_%_c_take'
p2428
I1
sS't_sv_c_take'
p2429
I8
sS't_sv_c_keep'
p2430
I11
sS't_qy_c_take'
p2431
I2
sS't_b_t_take'
p2432
I8
sS't_%_t_keep'
p2433
I3
sS't_aa_t_keep'
p2434
I4
sS't_aa_t_take'
p2435
I1
sS't_bh_c_take'
p2436
I1
sS't_bk_t_take'
p2437
I1
stRp2438
sS'c_fp_t_keep'
p2439
g4
((dp2440
S't_bk_c_take'
p2441
I2
sS't_sd_c_keep'
p2442
I7
sS't_qw_c_take'
p2443
I1
sS't_%_t_take'
p2444
I1
sS't_fp_t_take'
p2445
I19
sS't_b_c_take'
p2446
I3
sS't_qy^d_c_take'
p2447
I1
sS't_%_c_keep'
p2448
I1
sS't_b_t_take'
p2449
I5
sS't_ad_t_take'
p2450
I1
sS't_fp_c_take'
p2451
I18
sS't_sd_c_take'
p2452
I1
sS't_br_t_take'
p2453
I1
sS't_sv_c_keep'
p2454
I2
sS't_sv_c_take'
p2455
I1
sS't_qy_c_take'
p2456
I6
sS't_^h_c_keep'
p2457
I1
sS't_qw_c_keep'
p2458
I4
sS't_ba_t_take'
p2459
I1
sS't_qy_c_keep'
p2460
I1
sS't_fc_c_take'
p2461
I1
sS't_fp_c_keep'
p2462
I27
sS't_ba_c_take'
p2463
I2
stRp2464
sS't_na_t_take'
p2465
g4
((dp2466
S't_ad_c_keep'
p2467
I1
sS't_na_t_keep'
p2468
I12
sS't_qw_c_take'
p2469
I3
sS't_sd_c_keep'
p2470
I35
sS't_ad_c_take'
p2471
I1
sS't_%_c_keep'
p2472
I1
sS't_^2_c_keep'
p2473
I1
sS't_bf_c_take'
p2474
I1
sS't_b^m_t_take'
p2475
I1
sS't_sd_t_keep'
p2476
I1
sS't_qy_c_take'
p2477
I4
sS't_b_t_take'
p2478
I5
sS't_^q_c_take'
p2479
I2
sS't_bk_t_take'
p2480
I7
sS't_ba_c_take'
p2481
I2
sS't_bk_c_take'
p2482
I1
sS't_qo_c_take'
p2483
I1
sS't_sd_c_take'
p2484
I6
sS't_b^m_c_take'
p2485
I1
sS't_fo_o_fw_"_by_bc_t_take'
p2486
I1
sS't_ny_t_keep'
p2487
I12
sS't_ft_c_keep'
p2488
I1
sS't_bh_c_take'
p2489
I1
sS't_qy^d_c_take'
p2490
I3
sS't_bh_t_take'
p2491
I1
sS't_^h_t_take'
p2492
I1
sS't_qh_c_keep'
p2493
I1
sS't_%_c_take'
p2494
I2
sS't_sv_c_take'
p2495
I2
sS't_sv_c_keep'
p2496
I6
sS't_qw_c_keep'
p2497
I2
sS't_%_t_keep'
p2498
I3
sS't_qy_c_keep'
p2499
I1
sS't_ba_t_take'
p2500
I1
stRp2501
sS'c_br_c_keep'
p2502
g4
((dp2503
S'c_br_t_keep'
p2504
I85
sS'c_br_c_keep'
p2505
I137
stRp2506
sg178
g4
((dp2507
g2439
I65
sS'c_fp_c_keep'
p2508
I99
stRp2509
sg454
g4
((dp2510
S't_aa_c_take'
p2511
I7
sS't_qw_c_take'
p2512
I1
sS't_%_t_take'
p2513
I6
sS't_fo_o_fw_"_by_bc_c_take'
p2514
I1
sS't_b_c_take'
p2515
I8
sS't_^h_c_take'
p2516
I17
sS't_%_c_keep'
p2517
I8
sS't_na_c_take'
p2518
I2
sS't_bf_c_take'
p2519
I1
sS't_br_t_take'
p2520
I1
sS't_qo_c_keep'
p2521
I10
sS't_b^m_t_take'
p2522
I2
sS't_qy_c_take'
p2523
I6
sS't_b_t_take'
p2524
I16
sS't_b_t_keep'
p2525
I2
sS't_nn_c_take'
p2526
I1
sS't_%_t_keep'
p2527
I4
sS't_bk_c_take'
p2528
I1
sS't_qo_c_take'
p2529
I1
sS't_ny_c_take'
p2530
I3
sS't_b^m_c_take'
p2531
I2
sg878
I54
sS't_h_c_keep'
p2532
I1
sS't_fo_o_fw_"_by_bc_t_take'
p2533
I1
sS't_%_c_take'
p2534
I27
sS't_qy^d_c_take'
p2535
I1
sS't_b_c_keep'
p2536
I1
sS't_arp_nd_c_take'
p2537
I12
sS't_sd_t_take'
p2538
I2
sS't_^h_t_take'
p2539
I7
sS't_qh_c_take'
p2540
I1
sS't_sd_c_take'
p2541
I207
sS't_qrr_c_keep'
p2542
I1
sS't_qw_t_take'
p2543
I1
sS't_br_c_take'
p2544
I3
sg604
I66
sS't_qw^d_c_keep'
p2545
I1
sS't_sv_c_keep'
p2546
I9
sS't_ny_t_take'
p2547
I3
sS't_sd_c_keep'
p2548
I15
sS't_qw_c_keep'
p2549
I12
sS't_no_c_take'
p2550
I1
sS't_qy^d_c_keep'
p2551
I2
sS't_h_c_take'
p2552
I3
stRp2553
sS't_qo_c_keep'
p2554
g4
((dp2555
S'c_qo_t_keep'
p2556
I4
sg452
I250
stRp2557
sS'c_ba_t_keep'
p2558
g4
((dp2559
S't_t1_c_take'
p2560
I1
sS't_bf_c_keep'
p2561
I15
sS't_bk_t_keep'
p2562
I2
sS't_fo_o_fw_"_by_bc_c_take'
p2563
I5
sS't_b_c_take'
p2564
I19
sS't_b_t_take'
p2565
I288
sS't_ad_c_keep'
p2566
I5
sS't_b_t_keep'
p2567
I185
sS't_bf_c_take'
p2568
I1
sS't_sv_t_take'
p2569
I1
sS't_qo_c_keep'
p2570
I12
sS't_b^m_t_take'
p2571
I1
sS't_qy_c_take'
p2572
I25
sS't_^h_c_keep'
p2573
I7
sS't_t1_c_keep'
p2574
I1
sS't_aa_c_keep'
p2575
I14
sS't_^q_c_take'
p2576
I3
sS't_qw_c_take'
p2577
I13
sS't_bk_c_take'
p2578
I1
sS't_qo_c_take'
p2579
I5
sS't_%_t_take'
p2580
I89
sS't_ba_t_keep'
p2581
I13
sS't_fc_c_keep'
p2582
I9
sS't_h_c_keep'
p2583
I8
sS't_br_c_keep'
p2584
I1
sS't_%_c_take'
p2585
I145
sS't_ny_c_take'
p2586
I1
sS't_qy^d_c_take'
p2587
I1
sS't_bh_c_take'
p2588
I3
sS't_b_c_keep'
p2589
I6
sS't_b^m_c_keep'
p2590
I1
sS't_no_c_keep'
p2591
I1
sS't_qh_c_keep'
p2592
I11
sS't_br_c_take'
p2593
I1
sS't_sv_c_take'
p2594
I228
sS't_qw^d_c_keep'
p2595
I1
sS't_aa_t_take'
p2596
I154
sS't_ar_t_keep'
p2597
I1
sS't_%_t_keep'
p2598
I84
sS't_b^m_t_keep'
p2599
I1
sS't_sv_c_keep'
p2600
I214
sS't_qy_c_keep'
p2601
I74
sS't_h_c_take'
p2602
I8
sS't_ba_t_take'
p2603
I2
sS't_nn_t_keep'
p2604
I2
sS't_aa_c_take'
p2605
I42
sS't_ba_c_keep'
p2606
I189
sS't_ft_t_take'
p2607
I1
sS't_sd_c_keep'
p2608
I434
sS't_^h_c_take'
p2609
I4
sS't_bd_c_take'
p2610
I3
sS't_aa_t_keep'
p2611
I28
sS't_%_c_keep'
p2612
I75
sS't_^2_c_keep'
p2613
I3
sS't_na_c_take'
p2614
I2
sS't_ar_t_take'
p2615
I2
sS't_ar_c_take'
p2616
I4
sS't_fa_c_take'
p2617
I1
sS't_ft_c_take'
p2618
I1
sS't_br_t_take'
p2619
I2
sS't_^2_c_take'
p2620
I2
sS't_fc_t_take'
p2621
I1
sS't_nn_c_take'
p2622
I1
sS't_ba_c_take'
p2623
I21
sS't_bh_c_keep'
p2624
I5
sS't_bh_t_keep'
p2625
I1
sS't_b^m_c_take'
p2626
I1
sS't_t3_c_take'
p2627
I2
sS't_ny_t_keep'
p2628
I2
sg1499
I4
sS't_^g_c_keep'
p2629
I1
sS't_bh_t_take'
p2630
I1
sS't_qh_c_take'
p2631
I6
sS't_sd_c_take'
p2632
I1090
sS't_ar_c_keep'
p2633
I2
sS't_ny_t_take'
p2634
I1
sS't_^h_t_keep'
p2635
I1
sS't_ad_c_take'
p2636
I4
sS't_fc_c_take'
p2637
I13
sS't_qw_c_keep'
p2638
I42
sS't_fo_o_fw_"_by_bc_t_keep'
p2639
I1
sS't_qrr_c_take'
p2640
I1
sS't_fo_o_fw_"_by_bc_c_keep'
p2641
I1
sS't_qy^d_c_keep'
p2642
I26
sS't_nn_t_take'
p2643
I5
sS't_fp_c_keep'
p2644
I1
sS't_fa_c_keep'
p2645
I1
stRp2646
sg111
g4
((dp2647
S't_%_t_keep'
p2648
I2
sS't_aa_t_keep'
p2649
I1
sS't_qy_c_take'
p2650
I1
sS't_sd_c_take'
p2651
I1
stRp2652
sg11
g4
((dp2653
S'c_ad_c_keep'
p2654
I3886
sS'c_ad_t_keep'
p2655
I584
stRp2656
sg1872
g4
((dp2657
S'c_t1_t_keep'
p2658
I5
sg518
I73
stRp2659
sS'c_^2_t_keep'
p2660
g4
((dp2661
S't_ad_t_keep'
p2662
I1
sS't_aa_c_take'
p2663
I11
sS't_ba_c_keep'
p2664
I12
sS't_bf_c_keep'
p2665
I1
sS't_bk_t_keep'
p2666
I1
sS't_sd_c_keep'
p2667
I29
sS't_b_c_take'
p2668
I1
sS't_^h_c_take'
p2669
I1
sS't_aa_t_keep'
p2670
I30
sS't_%_c_keep'
p2671
I9
sS't_^2_c_keep'
p2672
I9
sS't_ar_t_take'
p2673
I2
sS't_ar_c_take'
p2674
I2
sS't_bf_c_take'
p2675
I1
sS't_aap_am_c_take'
p2676
I1
sS't_qy_c_take'
p2677
I3
sS't_b_t_take'
p2678
I43
sS't_b_t_keep'
p2679
I97
sS't_aa_c_keep'
p2680
I7
sS't_^q_c_take'
p2681
I1
sS't_bk_t_take'
p2682
I1
sS't_nn_c_take'
p2683
I1
sS't_bk_c_take'
p2684
I1
sS't_qo_c_take'
p2685
I1
sS't_%_t_take'
p2686
I11
sS't_ba_t_keep'
p2687
I3
sS't_fc_c_keep'
p2688
I1
sS't_b^m_c_take'
p2689
I1
sS't_h_c_keep'
p2690
I1
sS't_^q_c_keep'
p2691
I1
sS't_ny_t_keep'
p2692
I4
sS't_b_c_keep'
p2693
I4
sS't_no_c_keep'
p2694
I1
sS't_qy^d_c_keep'
p2695
I2
sS't_sd_c_take'
p2696
I58
sS't_ar_c_keep'
p2697
I1
sS't_br_c_take'
p2698
I1
sS't_sv_c_take'
p2699
I27
sS't_aa_t_take'
p2700
I112
sS't_ny_t_take'
p2701
I2
sS't_br_t_take'
p2702
I1
sS't_%_c_take'
p2703
I12
sS't_qw_c_keep'
p2704
I1
sS't_%_t_keep'
p2705
I37
sS't_^g_t_keep'
p2706
I2
sg793
I1
sS't_sv_c_keep'
p2707
I21
sS't_qy_c_keep'
p2708
I3
stRp2709
sg1303
g4
((dp2710
S't_fc_t_take'
p2711
I1
sS't_sd_c_keep'
p2712
I3
sS't_fc_t_keep'
p2713
I2
stRp2714
sS'c_sd_c_keep'
p2715
g4
((dp2716
S'c_sd_c_keep'
p2717
I559994
sg33
I65660
stRp2718
sg2176
g4
((dp2719
S'c_^q_c_keep'
p2720
I138
sS'c_^q_t_keep'
p2721
I4
stRp2722
sg2211
g4
((dp2723
S'c_ba_c_keep'
p2724
I619
sS'c_ba_t_keep'
p2725
I509
stRp2726
sg77
g4
((dp2727
S't_%_t_take'
p2728
I1
sS't_ar_c_take'
p2729
I1
sS't_qw_c_take'
p2730
I1
sS't_sd_c_keep'
p2731
I1
sS't_ny_t_keep'
p2732
I2
sS't_aa_t_keep'
p2733
I4
sS't_^2_c_keep'
p2734
I1
sS't_sd_c_take'
p2735
I9
sS't_%_c_take'
p2736
I2
sS't_sv_c_take'
p2737
I3
sS't_aa_t_take'
p2738
I7
sS't_ny_t_take'
p2739
I1
sS't_bk_c_keep'
p2740
I1
sS't_sv_c_keep'
p2741
I1
sS't_b_t_keep'
p2742
I17
sS't_%_t_keep'
p2743
I6
sS't_aa_c_keep'
p2744
I1
sS't_b^m_t_take'
p2745
I1
sS't_^q_c_take'
p2746
I1
stRp2747
sg2581
g4
((dp2748
S't_ba_c_keep'
p2749
I8
sS't_h_c_keep'
p2750
I3
sS't_bh_t_keep'
p2751
I2
sS't_aa_c_take'
p2752
I1
sS't_ad_c_keep'
p2753
I2
sS't_sd_c_take'
p2754
I43
sS't_qw_c_take'
p2755
I1
sS't_%_t_take'
p2756
I4
sS't_b_c_take'
p2757
I1
sS't_^h_c_take'
p2758
I1
sS't_aa_t_keep'
p2759
I1
sS't_%_c_keep'
p2760
I5
sS't_b_c_keep'
p2761
I1
sS't_ba_t_keep'
p2762
I3
sS't_na_c_take'
p2763
I1
sS't_qy^d_c_take'
p2764
I1
sS't_%_c_take'
p2765
I11
sS't_sv_c_take'
p2766
I11
sS't_sv_c_keep'
p2767
I15
sS't_ny_t_take'
p2768
I2
sS't_sd_c_keep'
p2769
I24
sS't_qy_c_take'
p2770
I3
sS't_b_t_take'
p2771
I11
sS't_b_t_keep'
p2772
I16
sS't_%_t_keep'
p2773
I6
sS't_aa_c_keep'
p2774
I2
sS't_aa_t_take'
p2775
I1
sS't_qy_c_keep'
p2776
I6
sS't_ba_c_take'
p2777
I1
stRp2778
sg119
g4
((dp2779
S't_sv_c_keep'
p2780
I1
sS't_sd_c_keep'
p2781
I1
stRp2782
sg1466
g4
((dp2783
S'c_ba_c_keep'
p2784
I1747
sg2558
I1978
stRp2785
sg1463
g4
((dp2786
S'c_nn_t_keep'
p2787
I24
sS'c_nn_c_keep'
p2788
I8
stRp2789
sg1773
g4
((dp2790
S't_ad_c_keep'
p2791
I21
sS't_qw_c_take'
p2792
I10
sS't_sd_c_keep'
p2793
I94
sS't_fo_o_fw_"_by_bc_c_take'
p2794
I7
sS't_b_c_take'
p2795
I8
sS't_aa_t_keep'
p2796
I1
sS't_%_c_keep'
p2797
I7
sS't_b_t_take'
p2798
I11
sS't_t3_c_keep'
p2799
I1
sS't_fp_c_take'
p2800
I2
sS't_fc_t_take'
p2801
I1
sS't_sd_c_take'
p2802
I16
sS't_br_t_take'
p2803
I1
sg2554
I21
sS't_b^m_t_take'
p2804
I14
sS't_sd_t_keep'
p2805
I2
sS't_qy_c_take'
p2806
I12
sS't_^h_c_keep'
p2807
I3
sS't_fo_o_fw_"_by_bc_c_keep'
p2808
I5
sS't_fa_t_keep'
p2809
I1
sS't_qo_c_take'
p2810
I1
sS't_fc_c_keep'
p2811
I3
sS't_b^m_c_take'
p2812
I1
sS't_h_c_keep'
p2813
I1
sS't_fo_o_fw_"_by_bc_t_take'
p2814
I7
sS't_fp_t_take'
p2815
I3
sS't_fc_t_keep'
p2816
I1
sS't_ny_t_keep'
p2817
I1
sS't_fa_c_keep'
p2818
I1
sS't_qy^d_c_take'
p2819
I2
sS't_b_t_keep'
p2820
I1
sS't_qy_c_keep'
p2821
I53
sS't_qh_c_keep'
p2822
I2
sS't_%_c_take'
p2823
I2
sS't_sv_c_take'
p2824
I6
sS't_aa_t_take'
p2825
I1
sS't_ny_t_take'
p2826
I2
sS't_fc_c_take'
p2827
I1
sS't_qw_c_keep'
p2828
I48
sS't_%_t_keep'
p2829
I5
sS't_fo_o_fw_"_by_bc_t_keep'
p2830
I3
sS't_ad_c_take'
p2831
I3
sS't_fp_c_keep'
p2832
I1
sS't_sv_c_keep'
p2833
I13
sS't_qy^d_c_keep'
p2834
I3
sS't_h_c_take'
p2835
I1
sS't_ba_t_take'
p2836
I1
stRp2837
sg1792
g4
((dp2838
S't_qo_c_take'
p2839
I1
sS't_ba_t_keep'
p2840
I1
sS't_ad_c_keep'
p2841
I1
sS't_qw_c_take'
p2842
I2
sS't_sd_c_keep'
p2843
I8
sS't_fo_o_fw_"_by_bc_t_take'
p2844
I1
sS't_fp_t_take'
p2845
I32
sS't_%_c_keep'
p2846
I2
sS't_fa_c_keep'
p2847
I1
sS't_qw^d_c_take'
p2848
I1
sg1508
I3
sS't_fp_c_take'
p2849
I11
sS't_sd_c_take'
p2850
I3
sS't_qo_c_keep'
p2851
I1
sS't_b^m_t_take'
p2852
I1
sS't_ny_t_take'
p2853
I1
sS't_qy_c_take'
p2854
I3
sS't_b_t_take'
p2855
I3
sS't_qw_c_keep'
p2856
I2
sS't_qy_c_keep'
p2857
I1
sS't_fp_c_keep'
p2858
I16
stRp2859
sg538
g4
((dp2860
g817
I996
sS'c_qy^d_c_keep'
p2861
I5904
stRp2862
sg643
g4
((dp2863
g1489
I13
sS'c_ft_t_keep'
p2864
I7
stRp2865
sg459
g4
((dp2866
S'c_bk_t_keep'
p2867
I94
sS'c_bk_c_keep'
p2868
I39
stRp2869
sg128
g4
((dp2870
S'c_fa_c_keep'
p2871
I18
sS'c_fa_t_keep'
p2872
I22
stRp2873
sg612
g4
((dp2874
S'c_qw^d_t_keep'
p2875
I69
sS'c_qw^d_c_keep'
p2876
I464
stRp2877
sg2066
g4
((dp2878
S'c_qh_c_keep'
p2879
I296
sS'c_qh_t_keep'
p2880
I10
stRp2881
sg130
g4
((dp2882
S't_sd_c_take'
p2883
I10
sS't_%_c_take'
p2884
I1
sS't_sv_c_take'
p2885
I1
sS't_sv_c_keep'
p2886
I1
sS't_%_t_take'
p2887
I1
sS't_qrr_c_keep'
p2888
I1
sS't_qy^d_c_take'
p2889
I1
sS't_qy_c_keep'
p2890
I6
sS't_b_t_keep'
p2891
I2
sS't_sd_t_take'
p2892
I1
stRp2893
sg27
g4
((dp2894
S't_ad_c_keep'
p2895
I3
sS't_bf_c_keep'
p2896
I13
sS't_bk_t_keep'
p2897
I3
sS't_fo_o_fw_"_by_bc_c_take'
p2898
I1
sS't_b_c_take'
p2899
I5
sS't_b_t_take'
p2900
I60
sS't_bf_c_take'
p2901
I2
sS't_b^m_t_take'
p2902
I4
sS't_qy_c_take'
p2903
I19
sS't_bf_t_keep'
p2904
I1
sS't_^h_c_keep'
p2905
I3
sS't_aa_c_keep'
p2906
I16
sS't_^q_c_take'
p2907
I3
sS't_bk_t_take'
p2908
I1
sS't_qw_c_take'
p2909
I5
sS't_ba_c_keep'
p2910
I50
sS't_qo_c_take'
p2911
I2
sS't_%_t_take'
p2912
I33
sS't_ba_t_keep'
p2913
I5
sS't_fc_c_keep'
p2914
I8
sS't_h_c_keep'
p2915
I5
sS't_fp_t_take'
p2916
I1
sS't_fc_t_keep'
p2917
I1
sS't_qy^d_c_take'
p2918
I2
sS't_ft_c_keep'
p2919
I1
sS't_b_c_keep'
p2920
I38
sS't_b^m_c_keep'
p2921
I2
sS't_no_c_keep'
p2922
I1
sS't_qh_c_keep'
p2923
I2
sS't_sv_c_take'
p2924
I150
sS't_sv_c_keep'
p2925
I125
sS't_%_t_keep'
p2926
I36
sS't_b^m_t_keep'
p2927
I2
sS't_aa_t_take'
p2928
I8
sS't_qy_c_keep'
p2929
I30
sS't_fc_c_take'
p2930
I4
sS't_nn_t_keep'
p2931
I2
sS't_aa_c_take'
p2932
I4
sS't_bh_t_keep'
p2933
I1
sS't_sd_c_keep'
p2934
I280
sS't_^h_c_take'
p2935
I1
sS't_aa_t_keep'
p2936
I13
sS't_%_c_keep'
p2937
I53
sS't_^2_c_keep'
p2938
I5
sS't_na_c_take'
p2939
I1
sS't_ar_c_take'
p2940
I1
sS't_aap_am_c_take'
p2941
I1
sS't_b_t_keep'
p2942
I199
sS't_nn_c_take'
p2943
I2
sS't_ba_c_take'
p2944
I7
sS't_bh_c_keep'
p2945
I3
sS't_ny_c_take'
p2946
I2
sS't_b^m_c_take'
p2947
I3
sS't_ny_t_keep'
p2948
I1
sS't_oo_co_cc_c_keep'
p2949
I1
sS't_sd_t_take'
p2950
I1
sS't_qh_c_take'
p2951
I1
sS't_sd_c_take'
p2952
I576
sS't_%_c_take'
p2953
I55
sS't_ny_t_take'
p2954
I9
sS't_bk_c_keep'
p2955
I1
sS't_ad_c_take'
p2956
I7
sS't_ng_c_keep'
p2957
I1
sS't_h_c_take'
p2958
I3
sS't_qw_c_keep'
p2959
I27
sS't_fo_o_fw_"_by_bc_t_keep'
p2960
I1
sS't_fo_o_fw_"_by_bc_c_keep'
p2961
I2
sS't_qy^d_c_keep'
p2962
I12
sS't_nn_t_take'
p2963
I1
stRp2964
sg1663
g4
((dp2965
S'c_br_t_keep'
p2966
I76
sS'c_br_c_keep'
p2967
I75
stRp2968
sg1765
g4
((dp2969
g1637
I1644
sS'c_qw_c_keep'
p2970
I7682
stRp2971
sS't_ar_t_keep'
p2972
g4
((dp2973
S't_ba_c_keep'
p2974
I1
sS't_ar_c_keep'
p2975
I1
sS't_ad_c_keep'
p2976
I2
sS't_h_c_keep'
p2977
I1
sS't_qy^d_c_take'
p2978
I1
sS't_bh_t_keep'
p2979
I1
sS't_sd_c_keep'
p2980
I38
sS't_bd_c_keep'
p2981
I1
sS't_sd_c_take'
p2982
I2
sS't_qw^d_c_keep'
p2983
I1
sS't_sv_c_keep'
p2984
I8
sS't_ar_t_keep'
p2985
I17
sS't_aa_c_keep'
p2986
I1
sS't_^h_c_keep'
p2987
I2
sS't_qw_c_keep'
p2988
I1
sS't_%_t_keep'
p2989
I1
sS't_^2_c_take'
p2990
I1
sS't_%_c_keep'
p2991
I3
sS't_qy_c_keep'
p2992
I2
sS't_sd_t_keep'
p2993
I2
sS't_ba_c_take'
p2994
I1
stRp2995
sg133
g4
((dp2996
S't_ad_c_keep'
p2997
I7
sS't_bf_c_keep'
p2998
I2
sS't_bk_t_keep'
p2999
I1
sS't_fo_o_fw_"_by_bc_c_take'
p3000
I1
sS't_b_c_take'
p3001
I58
sS't_b_t_take'
p3002
I504
sS't_ng_c_take'
p3003
I15
sS't_fc_t_take'
p3004
I9
sS't_bf_c_take'
p3005
I18
sS't_qo_c_keep'
p3006
I1
sS't_b^m_t_take'
p3007
I11
sS't_qy_c_take'
p3008
I122
sS't_na_c_keep'
p3009
I3
sS't_^h_c_keep'
p3010
I4
sS't_fa_t_keep'
p3011
I1
sS't_qy^d_t_take'
p3012
I2
sS't_aa_c_keep'
p3013
I11
sS't_arp_nd_t_take'
p3014
I1
sS't_^q_c_take'
p3015
I1
sS't_bk_t_take'
p3016
I9
sS't_qw_c_take'
p3017
I50
sS't_%_t_keep'
p3018
I95
sS't_bk_c_take'
p3019
I12
sS't_qo_c_take'
p3020
I6
sS't_%_t_take'
p3021
I42
sS't_ba_t_keep'
p3022
I1
sS't_fc_c_keep'
p3023
I7
sg510
I1
sS't_h_c_keep'
p3024
I9
sS't_fo_o_fw_"_by_bc_t_take'
p3025
I2
sS't_fc_t_keep'
p3026
I1
sS't_qy^d_c_take'
p3027
I25
sS't_bh_c_take'
p3028
I20
sS't_b_c_keep'
p3029
I4
sS't_ny_c_take'
p3030
I20
sS't_^2_t_keep'
p3031
I1
sS't_qh_c_keep'
p3032
I3
sS't_qrr_c_keep'
p3033
I1
sS't_br_c_take'
p3034
I5
sS't_sv_c_take'
p3035
I265
sS't_sv_c_keep'
p3036
I207
sS't_ar_t_keep'
p3037
I4
sS't_no_c_take'
p3038
I1
sS't_ad_c_take'
p3039
I10
sS't_aa_t_take'
p3040
I144
sS't_qy_c_keep'
p3041
I28
sS't_arp_nd_c_keep'
p3042
I2
sS't_fc_c_take'
p3043
I17
sS't_ba_t_take'
p3044
I7
sg996
I4
sS't_bd_c_take'
p3045
I1
sS't_aa_c_take'
p3046
I66
sS't_ba_c_keep'
p3047
I13
sS't_sd_c_keep'
p3048
I569
sS't_^h_c_take'
p3049
I7
sS't_qy_t_take'
p3050
I1
sS't_aa_t_keep'
p3051
I23
sS't_%_c_keep'
p3052
I105
sS't_^2_c_keep'
p3053
I2
sS't_bf_t_take'
p3054
I1
sS't_ar_t_take'
p3055
I5
sS't_ar_c_take'
p3056
I1
sS't_t3_t_take'
p3057
I1
sS't_ft_c_take'
p3058
I1
sS't_br_t_take'
p3059
I1
sS't_^2_c_take'
p3060
I14
sS't_na_t_keep'
p3061
I3
sS't_b_t_keep'
p3062
I59
sS't_nn_c_take'
p3063
I8
sS't_ba_c_take'
p3064
I83
sS't_bh_t_keep'
p3065
I1
sS't_b^m_c_take'
p3066
I9
sS't_t3_c_take'
p3067
I1
sS't_na_t_take'
p3068
I1
sS't_^q_c_keep'
p3069
I3
sS't_ny_t_keep'
p3070
I3
sS't_oo_co_cc_c_keep'
p3071
I3
sS't_fa_c_take'
p3072
I1
sS't_qw^d_c_take'
p3073
I3
sS't_arp_nd_c_take'
p3074
I6
sS't_t3_t_keep'
p3075
I1
sS't_bh_t_take'
p3076
I7
sS't_sd_t_take'
p3077
I4
sS't_^h_t_take'
p3078
I1
sS't_qh_c_take'
p3079
I10
sS't_sd_c_take'
p3080
I488
sS't_%_c_take'
p3081
I86
sS't_bd_t_take'
p3082
I1
sS't_ny_t_take'
p3083
I42
sS't_aap_am_c_take'
p3084
I1
sS't_h_c_take'
p3085
I14
sS't_qw_c_keep'
p3086
I10
sS't_fo_o_fw_"_by_bc_t_keep'
p3087
I1
sS't_qrr_c_take'
p3088
I1
sS't_fo_o_fw_"_by_bc_c_keep'
p3089
I1
sS't_oo_co_cc_c_take'
p3090
I1
sS't_qy^d_c_keep'
p3091
I10
sS't_na_c_take'
p3092
I21
sS't_nn_t_take'
p3093
I30
stRp3094
sg134
g4
((dp3095
S't_ny_c_take'
p3096
I2
sS't_aa_c_take'
p3097
I1
sS't_sd_c_keep'
p3098
I4
sS't_arp_nd_c_take'
p3099
I1
sS't_na_c_take'
p3100
I4
sS't_sd_t_take'
p3101
I1
sS't_sd_c_take'
p3102
I3
sS't_na_t_take'
p3103
I3
sS't_br_c_take'
p3104
I1
sS't_sv_c_take'
p3105
I1
sS't_aa_t_take'
p3106
I1
sS't_ny_t_take'
p3107
I18
sS't_na_c_keep'
p3108
I1
sS't_b_t_take'
p3109
I2
sS't_qy_c_keep'
p3110
I1
sS't_^q_c_take'
p3111
I1
sS't_nn_t_take'
p3112
I2
stRp3113
sg2127
g4
((dp3114
S'c_ad_c_keep'
p3115
I262
sS'c_ad_t_keep'
p3116
I23
stRp3117
sg2720
g4
((dp3118
S'c_^q_c_keep'
p3119
I4161
sg745
I811
stRp3120
sg1802
g4
((dp3121
S'c_oo_co_cc_t_keep'
p3122
I98
sS'c_oo_co_cc_c_keep'
p3123
I518
stRp3124
sg1969
g4
((dp3125
S't_sd_c_take'
p3126
I4
sS't_na_t_take'
p3127
I1
sS't_no_c_take'
p3128
I1
sS't_aa_t_take'
p3129
I1
sS't_ny_t_take'
p3130
I5
sS't_sd_c_keep'
p3131
I1
sS't_b_t_take'
p3132
I1
sS't_qy_t_take'
p3133
I1
sS't_sv_c_keep'
p3134
I1
sS't_na_c_take'
p3135
I2
sS't_nn_t_take'
p3136
I1
stRp3137
sg1424
g4
((dp3138
S'c_arp_nd_c_keep'
p3139
I31
stRp3140
sg165
g4
((dp3141
S't_qy^d_c_take'
p3142
I1
sS't_b_t_take'
p3143
I1
sS't_ad_c_keep'
p3144
I1
sS't_sv_c_keep'
p3145
I1
sS't_sd_c_keep'
p3146
I5
sS't_^h_c_keep'
p3147
I2
stRp3148
sS't_bk_c_keep'
p3149
g4
((dp3150
S'c_bk_t_keep'
p3151
I34
sS'c_bk_c_keep'
p3152
I14
stRp3153
sg3122
g4
((dp3154
S't_aa_c_take'
p3155
I1
sS't_ad_c_keep'
p3156
I1
sS't_qw_c_take'
p3157
I1
sS't_%_t_take'
p3158
I1
sS't_b_c_take'
p3159
I2
sS't_ad_c_take'
p3160
I2
sS't_%_c_keep'
p3161
I1
sS't_b_t_take'
p3162
I11
sS't_bd_c_take'
p3163
I1
sS't_ar_t_take'
p3164
I1
sS't_ar_c_take'
p3165
I1
sS't_qy_c_take'
p3166
I3
sS't_^h_c_keep'
p3167
I1
sS't_sv_c_keep'
p3168
I5
sS't_bk_t_take'
p3169
I1
sS't_ba_c_take'
p3170
I2
sS't_sd_c_keep'
p3171
I14
sS't_ba_t_keep'
p3172
I1
sS't_sd_c_take'
p3173
I6
sS't_h_c_keep'
p3174
I1
sS't_fo_o_fw_"_by_bc_t_take'
p3175
I1
sS't_oo_co_cc_c_keep'
p3176
I4
sS't_b_c_keep'
p3177
I2
sS't_t3_t_keep'
p3178
I2
sS't_qy_c_keep'
p3179
I3
sS't_qh_c_take'
p3180
I1
sS't_qh_c_keep'
p3181
I1
sS't_br_c_take'
p3182
I1
sS't_sv_c_take'
p3183
I2
sS't_aa_t_take'
p3184
I15
sS't_qw_c_keep'
p3185
I5
sS't_%_t_keep'
p3186
I1
sS't_fo_o_fw_"_by_bc_c_keep'
p3187
I1
sS't_qy^d_c_keep'
p3188
I1
sS't_qy_t_keep'
p3189
I1
stRp3190
sg2238
g4
((dp3191
S't_ad_c_keep'
p3192
I6
sS't_bf_c_keep'
p3193
I1
sS't_qw_c_take'
p3194
I32
sS't_fo_o_fw_"_by_bc_c_take'
p3195
I1
sS't_b_c_take'
p3196
I11
sS't_bh_t_take'
p3197
I1
sS't_b_t_keep'
p3198
I115
sS't_bf_c_take'
p3199
I13
sS't_qo_c_keep'
p3200
I3
sS't_b^m_t_take'
p3201
I1
sS't_qy_c_take'
p3202
I90
sS't_na_c_keep'
p3203
I8
sS't_b_t_take'
p3204
I168
sS't_aa_c_keep'
p3205
I14
sS't_^q_c_take'
p3206
I4
sS't_bk_t_keep'
p3207
I1
sS't_%_t_keep'
p3208
I41
sS't_bk_c_take'
p3209
I1
sS't_qo_c_take'
p3210
I13
sS't_%_t_take'
p3211
I38
sS't_ba_t_keep'
p3212
I2
sS't_fc_c_keep'
p3213
I4
sS't_h_c_keep'
p3214
I6
sS't_br_c_keep'
p3215
I1
sS't_fp_t_take'
p3216
I1
sS't_fc_t_keep'
p3217
I1
sS't_qy^d_c_take'
p3218
I14
sS't_bh_c_take'
p3219
I5
sS't_fa_c_keep'
p3220
I2
sS't_b^m_c_keep'
p3221
I2
sS't_no_c_keep'
p3222
I4
sS't_^2_t_keep'
p3223
I1
sS't_qh_c_keep'
p3224
I2
sS't_sv_c_take'
p3225
I212
sS't_aa_t_take'
p3226
I38
sS't_ar_t_keep'
p3227
I1
sS't_no_c_take'
p3228
I1
sS't_ad_c_take'
p3229
I4
sS't_sv_c_keep'
p3230
I78
sS't_qy_c_keep'
p3231
I29
sS't_qy_t_keep'
p3232
I1
sS't_arp_nd_c_keep'
p3233
I3
sS't_fc_c_take'
p3234
I7
sS't_ba_t_take'
p3235
I11
sS't_nn_t_keep'
p3236
I8
sS't_aa_c_take'
p3237
I26
sS't_ba_c_keep'
p3238
I9
sS't_sd_c_keep'
p3239
I172
sS't_^h_c_take'
p3240
I8
sS't_aa_t_keep'
p3241
I33
sS't_%_c_keep'
p3242
I31
sS't_ar_t_take'
p3243
I1
sS't_fa_c_take'
p3244
I1
sS't_br_t_take'
p3245
I2
sS't_br_t_keep'
p3246
I3
sS't_sd_t_keep'
p3247
I1
sS't_fc_t_take'
p3248
I1
sS't_nn_c_take'
p3249
I1
sS't_ba_c_take'
p3250
I40
sS't_bh_c_keep'
p3251
I3
sS't_b^m_c_take'
p3252
I1
sS't_fo_o_fw_"_by_bc_t_take'
p3253
I1
sS't_^q_c_keep'
p3254
I1
sS't_ny_t_keep'
p3255
I10
sS't_qw^d_c_take'
p3256
I3
sS't_h_c_take'
p3257
I4
sS't_ng_c_take'
p3258
I3
sS't_sd_t_take'
p3259
I1
sS't_qh_c_take'
p3260
I4
sS't_sd_c_take'
p3261
I536
sS't_%_c_take'
p3262
I75
sS't_ny_t_take'
p3263
I3
sS't_bk_c_keep'
p3264
I1
sS't_arp_nd_t_take'
p3265
I1
sS't_qw_c_keep'
p3266
I12
sS't_^2_c_take'
p3267
I4
sS't_qrr_c_take'
p3268
I3
sS't_oo_co_cc_c_take'
p3269
I1
sS't_qy^d_c_keep'
p3270
I2
sS't_nn_t_take'
p3271
I4
sS't_b_c_keep'
p3272
I8
stRp3273
sS't_no_t_take'
p3274
g4
((dp3275
S't_ny_t_keep'
p3276
I1
sS't_sd_c_take'
p3277
I1
sS't_qw_c_take'
p3278
I1
sS't_sd_c_keep'
p3279
I1
stRp3280
sg17
g4
((dp3281
g2265
I730
sS'c_bf_c_keep'
p3282
I3758
stRp3283
sg1677
g4
((dp3284
S'c_^h_t_keep'
p3285
I26
sg1034
I175
stRp3286
sg2225
g4
((dp3287
S'c_ft_c_keep'
p3288
I17
sS'c_ft_t_keep'
p3289
I18
stRp3290
sg140
g4
((dp3291
g1628
I2855
sg2025
I2000
stRp3292
sg1496
g4
((dp3293
S't_bk_c_take'
p3294
I8
sS't_sd_c_keep'
p3295
I65
sS't_qy^d_c_take'
p3296
I1
sS't_%_c_keep'
p3297
I8
sS't_no_c_keep'
p3298
I1
sS't_sd_t_take'
p3299
I1
sS't_sd_c_take'
p3300
I5
sS't_%_c_take'
p3301
I1
sS't_sv_c_take'
p3302
I1
sS't_aa_t_take'
p3303
I4
sS't_qy_c_take'
p3304
I2
sS't_b_t_take'
p3305
I32
sS't_bk_t_take'
p3306
I7
sS't_%_t_keep'
p3307
I5
sS't_sv_c_keep'
p3308
I11
sS't_bh_c_take'
p3309
I5
sS't_qy_c_keep'
p3310
I1
sS't_arp_nd_c_keep'
p3311
I6
sS't_ba_c_take'
p3312
I5
stRp3313
sg732
g4
((dp3314
S'c_bd_t_keep'
p3315
I26
sS'c_bd_c_keep'
p3316
I32
stRp3317
sS't_na_c_take'
p3318
g4
((dp3319
S'c_na_c_keep'
p3320
I410
sS'c_na_t_keep'
p3321
I109
stRp3322
sS't_ar_t_take'
p3323
g4
((dp3324
S't_ad_t_keep'
p3325
I1
sS't_ba_c_keep'
p3326
I1
sS't_h_c_keep'
p3327
I1
sS't_ar_c_keep'
p3328
I2
sS't_ba_t_keep'
p3329
I1
sS't_ad_c_keep'
p3330
I2
sS't_bk_t_keep'
p3331
I1
sS't_sd_c_keep'
p3332
I31
sS't_aap_am_c_keep'
p3333
I1
sS't_%_c_keep'
p3334
I1
sS't_fa_c_keep'
p3335
I1
sS't_bd_c_keep'
p3336
I3
sS't_sd_c_take'
p3337
I2
sS't_bf_c_take'
p3338
I1
sS't_sv_c_take'
p3339
I2
sS't_b^m_t_take'
p3340
I1
sS't_ar_t_keep'
p3341
I15
sS't_^h_c_keep'
p3342
I2
sS't_%_t_keep'
p3343
I4
sS't_sv_c_keep'
p3344
I9
sS't_ny_t_take'
p3345
I1
sS't_nn_t_take'
p3346
I1
stRp3347
sg2094
g4
((dp3348
S'c_t3_c_keep'
p3349
I38
sS'c_t3_t_keep'
p3350
I13
stRp3351
sg2966
g4
((dp3352
S't_nn_c_keep'
p3353
I1
sS't_qw_c_take'
p3354
I7
sS't_%_t_take'
p3355
I1
sS't_fo_o_fw_"_by_bc_c_take'
p3356
I1
sS't_qy_t_take'
p3357
I2
sS't_aa_t_keep'
p3358
I1
sS't_aa_c_take'
p3359
I3
sS't_na_c_take'
p3360
I2
sg3323
I1
sS't_bf_c_take'
p3361
I1
sS't_%_t_keep'
p3362
I4
sS't_qy_c_take'
p3363
I22
sS't_b_t_take'
p3364
I2
sS't_qo_c_take'
p3365
I1
sS't_sd_c_keep'
p3366
I1
sS't_na_t_take'
p3367
I1
sS't_ny_c_take'
p3368
I3
sS't_qy^d_c_take'
p3369
I3
sS't_fa_c_keep'
p3370
I1
sS't_b^m_c_keep'
p3371
I1
sS't_sd_t_take'
p3372
I4
sS't_qy^d_c_keep'
p3373
I1
sS't_sd_c_take'
p3374
I48
sS't_%_c_take'
p3375
I2
sS't_sv_c_take'
p3376
I12
sS't_aa_t_take'
p3377
I13
sS't_ny_t_take'
p3378
I18
sS't_no_c_take'
p3379
I1
sS't_ad_c_take'
p3380
I1
sS't_oo_co_cc_c_take'
p3381
I1
sS't_qy_c_keep'
p3382
I2
sS't_nn_t_take'
p3383
I3
stRp3384
sg2117
g4
((dp3385
S'c_fa_c_keep'
p3386
I17
sS'c_fa_t_keep'
p3387
I6
stRp3388
sg12
g4
((dp3389
S't_ad_t_keep'
p3390
I1
sS't_nn_t_keep'
p3391
I1
sS't_aa_c_take'
p3392
I35
sS't_ad_c_keep'
p3393
I60
sS't_bf_c_keep'
p3394
I1
sS't_qw_c_take'
p3395
I9
sS't_sd_c_keep'
p3396
I85
sS't_b_c_take'
p3397
I6
sS't_^h_c_take'
p3398
I1
sS't_aa_t_keep'
p3399
I1
sS't_%_c_keep'
p3400
I16
sS't_b_t_take'
p3401
I70
sS't_bd_c_keep'
p3402
I1
sS't_bd_c_take'
p3403
I1
sS't_ar_t_take'
p3404
I7
sS't_t3_c_keep'
p3405
I4
sg369
I2
sS't_fa_c_take'
p3406
I2
sS't_br_t_take'
p3407
I1
sS't_qo_c_keep'
p3408
I2
sS't_fc_c_keep'
p3409
I4
sS't_qy_c_take'
p3410
I10
sS't_^h_c_keep'
p3411
I2
sS't_b_t_keep'
p3412
I2
sS't_aa_c_keep'
p3413
I1
sS't_bk_t_take'
p3414
I1
sS't_ba_c_take'
p3415
I5
sS't_ba_c_keep'
p3416
I1
sS't_qo_c_take'
p3417
I1
sS't_^2_t_take'
p3418
I1
sS't_ar_c_take'
p3419
I2
sS't_b^m_c_take'
p3420
I4
sS't_h_c_keep'
p3421
I1
sS't_%_t_take'
p3422
I6
sS't_^q_c_keep'
p3423
I1
sS't_fc_t_keep'
p3424
I1
sS't_qy^d_c_take'
p3425
I3
sS't_oo_co_cc_c_keep'
p3426
I4
sS't_fa_c_keep'
p3427
I1
sS't_qw^d_c_take'
p3428
I1
sS't_h_c_take'
p3429
I4
sS't_bh_t_take'
p3430
I1
sS't_ad_t_take'
p3431
I1
sS't_sd_t_take'
p3432
I1
sS't_qy_c_keep'
p3433
I15
sS't_qh_c_keep'
p3434
I6
sS't_%_c_take'
p3435
I9
sS't_sv_c_take'
p3436
I18
sS't_aa_t_take'
p3437
I114
sS't_ar_t_keep'
p3438
I1
sS't_aap_am_c_take'
p3439
I1
sS't_fc_c_take'
p3440
I2
sS't_qw_c_keep'
p3441
I9
sS't_%_t_keep'
p3442
I9
sS't_^2_c_take'
p3443
I1
sS't_sv_c_keep'
p3444
I36
sS't_oo_co_cc_c_take'
p3445
I1
sS't_qy^d_c_keep'
p3446
I1
sS't_sd_c_take'
p3447
I67
sS't_fp_c_keep'
p3448
I1
stRp3449
sg757
g4
((dp3450
S't_^q_t_keep'
p3451
I1
sS't_sv_c_keep'
p3452
I1
sS't_ny_t_take'
p3453
I1
sS't_sd_c_keep'
p3454
I4
sS't_^q_c_keep'
p3455
I13
sS't_b_t_take'
p3456
I2
stRp3457
sg520
g4
((dp3458
S't_ba_c_keep'
p3459
I1
sS't_qo_c_take'
p3460
I1
sS't_%_t_take'
p3461
I2
sS't_h_c_keep'
p3462
I1
sS't_qh_c_keep'
p3463
I1
sS't_sd_c_keep'
p3464
I42
sS't_%_c_keep'
p3465
I7
sS't_^h_c_keep'
p3466
I6
sS't_qy_c_keep'
p3467
I1
sS't_sd_c_take'
p3468
I1
sS't_bf_c_take'
p3469
I1
sS't_fa_c_take'
p3470
I1
sS't_qo_c_keep'
p3471
I1
sS't_sv_c_keep'
p3472
I8
sS't_qy_c_take'
p3473
I2
sS't_b_t_take'
p3474
I5
sS't_t1_c_keep'
p3475
I5
sS't_qw_c_keep'
p3476
I2
sS't_%_t_keep'
p3477
I4
sS't_fo_o_fw_"_by_bc_c_keep'
p3478
I1
sS't_qy^d_c_keep'
p3479
I1
sS't_bk_t_take'
p3480
I1
stRp3481
sg2875
g4
((dp3482
S't_ad_c_keep'
p3483
I3
sS't_sd_c_keep'
p3484
I13
sS't_qrr_c_keep'
p3485
I1
sS't_^h_c_take'
p3486
I1
sS't_%_c_keep'
p3487
I3
sS't_sd_t_take'
p3488
I1
sS't_qy^d_c_keep'
p3489
I2
sS't_sd_c_take'
p3490
I22
sS't_%_c_take'
p3491
I2
sS't_sv_c_take'
p3492
I3
sS't_sv_c_keep'
p3493
I5
sS't_ny_t_take'
p3494
I1
sS't_b_t_take'
p3495
I5
sS't_h_c_take'
p3496
I2
sS't_no_c_take'
p3497
I2
sS't_aa_c_keep'
p3498
I1
sS't_qy_c_keep'
p3499
I1
sS't_ba_c_take'
p3500
I1
sS't_bk_t_take'
p3501
I1
sS't_fc_c_take'
p3502
I1
sS't_%_t_keep'
p3503
I1
stRp3504
sg2560
g4
((dp3505
S'c_t1_t_keep'
p3506
I1
sS'c_t1_c_keep'
p3507
I16
stRp3508
sg2131
g4
((dp3509
S't_ba_c_keep'
p3510
I1
sS't_bf_c_keep'
p3511
I1
sS't_sd_c_keep'
p3512
I18
sS't_fo_o_fw_"_by_bc_t_take'
p3513
I1
sS't_fc_t_keep'
p3514
I1
sS't_aa_t_keep'
p3515
I1
sS't_fa_c_keep'
p3516
I1
sS't_sd_c_take'
p3517
I5
sS't_sv_c_keep'
p3518
I2
sS't_ny_t_take'
p3519
I1
sS't_qy_c_take'
p3520
I1
sS't_b_t_take'
p3521
I1
sS't_%_t_keep'
p3522
I2
sS't_fo_o_fw_"_by_bc_t_keep'
p3523
I2
sS't_qy_c_keep'
p3524
I1
sS't_nn_t_take'
p3525
I1
stRp3526
sg458
g4
((dp3527
S't_nn_c_keep'
p3528
I1
sS't_ad_c_keep'
p3529
I1
sS't_bf_c_keep'
p3530
I11
sS't_bk_t_keep'
p3531
I13
sS't_sd_c_keep'
p3532
I70
sS't_fo_o_fw_"_by_bc_c_take'
p3533
I2
sS't_b_c_take'
p3534
I2
sS't_bd_c_take'
p3535
I1
sS't_ad_c_take'
p3536
I2
sS't_%_c_keep'
p3537
I18
sS't_b_t_take'
p3538
I32
sS't_^2_c_keep'
p3539
I1
sS't_ft_c_take'
p3540
I1
sS't_br_t_take'
p3541
I1
sS't_qo_c_keep'
p3542
I2
sS't_qy_c_take'
p3543
I6
sS't_^h_c_keep'
p3544
I1
sS't_b_t_keep'
p3545
I35
sS't_aa_c_keep'
p3546
I1
sS't_ba_c_keep'
p3547
I5
sS't_qo_c_take'
p3548
I5
sS't_%_t_take'
p3549
I6
sS't_ba_t_keep'
p3550
I1
sS't_fc_c_keep'
p3551
I3
sS't_h_c_keep'
p3552
I1
sS't_ny_c_take'
p3553
I1
sS't_qy^d_c_take'
p3554
I1
sS't_b_c_keep'
p3555
I5
sS't_b^m_c_keep'
p3556
I1
sS't_no_c_keep'
p3557
I1
sS't_qy^d_c_keep'
p3558
I11
sS't_qh_c_take'
p3559
I1
sS't_sd_c_take'
p3560
I163
sS't_%_c_take'
p3561
I21
sS't_sv_c_take'
p3562
I10
sS't_qw^d_c_keep'
p3563
I2
sS't_sv_c_keep'
p3564
I13
sS't_ny_t_take'
p3565
I3
sg3149
I10
sS't_fc_c_take'
p3566
I1
sS't_qw_c_keep'
p3567
I7
sS't_%_t_keep'
p3568
I11
sS't_aa_t_keep'
p3569
I1
sS't_qy_c_keep'
p3570
I14
sS't_h_c_take'
p3571
I1
sS't_nn_t_take'
p3572
I4
stRp3573
sg488
g4
((dp3574
S't_fc_t_take'
p3575
I1
sS't_sd_c_take'
p3576
I2
sS't_fc_c_take'
p3577
I2
sS't_fc_t_keep'
p3578
I1
stRp3579
sg791
g4
((dp3580
g1061
I231
sS'c_no_c_keep'
p3581
I686
stRp3582
sg2223
g4
((dp3583
S't_sv_c_keep'
p3584
I1
stRp3585
sS'c_ny_t_keep'
p3586
g4
((dp3587
S't_nn_t_keep'
p3588
I1
sS't_ad_c_keep'
p3589
I2
sS't_bk_c_take'
p3590
I2
sg1974
I4
sS't_qw_c_take'
p3591
I1
sS't_%_t_take'
p3592
I5
sS't_b_c_take'
p3593
I1
sS't_%_c_keep'
p3594
I8
sS't_bf_c_take'
p3595
I2
sS't_b^m_t_take'
p3596
I2
sS't_sd_t_keep'
p3597
I3
sS't_qy_c_take'
p3598
I9
sS't_na_c_keep'
p3599
I2
sS't_b_t_take'
p3600
I19
sS't_bk_t_take'
p3601
I7
sS't_ba_c_take'
p3602
I3
sS't_ba_c_keep'
p3603
I1
sS't_sd_c_keep'
p3604
I188
sS't_ba_t_keep'
p3605
I1
sS't_^q_c_keep'
p3606
I1
sS't_ny_t_keep'
p3607
I40
sS't_bh_c_take'
p3608
I2
sS't_fa_c_keep'
p3609
I1
sS't_qy^d_c_take'
p3610
I4
sS't_sd_t_take'
p3611
I1
sS't_sd_c_take'
p3612
I11
sS't_%_c_take'
p3613
I3
sS't_br_c_take'
p3614
I1
sS't_sv_c_take'
p3615
I9
sS't_sv_c_keep'
p3616
I10
sS't_%_t_keep'
p3617
I5
sS't_ny_c_keep'
p3618
I7
sS't_qy_c_keep'
p3619
I1
stRp3620
sg1853
g4
((dp3621
S't_%_t_take'
p3622
I1
sS't_aa_c_take'
p3623
I1
sS't_ad_c_keep'
p3624
I1
sS't_bf_c_keep'
p3625
I2
sS't_sd_c_keep'
p3626
I16
sg2143
I1
sS't_qy^d_c_take'
p3627
I1
sS't_sv_c_keep'
p3628
I1
sS't_%_c_keep'
p3629
I3
sS't_bd_c_keep'
p3630
I3
sS't_aa_t_take'
p3631
I2
sS't_b_c_take'
p3632
I1
sS't_t3_c_take'
p3633
I1
sS't_sd_c_take'
p3634
I15
sS't_%_c_take'
p3635
I2
sS't_fa_c_take'
p3636
I1
sS't_sv_c_take'
p3637
I8
sS't_b^m_t_take'
p3638
I1
sS't_ar_t_keep'
p3639
I2
sS't_qy_c_take'
p3640
I2
sS't_b_t_take'
p3641
I7
sS't_b_t_keep'
p3642
I1
sS't_%_t_keep'
p3643
I3
sS't_fo_o_fw_"_by_bc_c_keep'
p3644
I1
sS't_qy_c_keep'
p3645
I1
sS't_bk_t_take'
p3646
I1
stRp3647
sg391
g4
((dp3648
S'c_aa_c_keep'
p3649
I2361
sS'c_aa_t_keep'
p3650
I1456
stRp3651
sg2213
g4
((dp3652
S'c_bh_c_keep'
p3653
I45
sS'c_bh_t_keep'
p3654
I29
stRp3655
sS't_ny_c_take'
p3656
g4
((dp3657
g574
I23
sg3586
I290
stRp3658
sg2292
g4
((dp3659
S't_ng_c_take'
p3660
I1
sS't_sd_c_keep'
p3661
I1
sS't_bk_t_take'
p3662
I1
stRp3663
sg1207
g4
((dp3664
S't_ar_c_keep'
p3665
I8
sS't_aa_c_take'
p3666
I1
sS't_b^m_c_take'
p3667
I2
sS't_%_c_keep'
p3668
I8
sS't_h_c_keep'
p3669
I1
sS't_b_c_take'
p3670
I1
sS't_sd_c_keep'
p3671
I54
sS't_qh_c_take'
p3672
I1
sS't_sd_c_take'
p3673
I6
sS't_sv_c_take'
p3674
I4
sS't_sv_c_keep'
p3675
I24
sS't_ar_t_keep'
p3676
I6
sS't_qy_c_take'
p3677
I1
sS't_b_t_take'
p3678
I7
sS't_fo_o_fw_"_by_bc_c_keep'
p3679
I1
sS't_fa_t_keep'
p3680
I1
sS't_%_t_keep'
p3681
I5
sS't_aa_c_keep'
p3682
I1
sS't_b^m_t_take'
p3683
I1
sS't_bh_c_take'
p3684
I1
sS't_qy_c_keep'
p3685
I2
stRp3686
sg1736
g4
((dp3687
S'c_b^m_t_keep'
p3688
I121
sS'c_b^m_c_keep'
p3689
I123
stRp3690
sg2295
g4
((dp3691
S'c_br_t_keep'
p3692
I4
sg2502
I10
stRp3693
sg154
g4
((dp3694
g2411
I31
sS'c_t3_t_keep'
p3695
I2
stRp3696
sg770
g4
((dp3697
S'c_^q_c_keep'
p3698
I673
sS'c_^q_t_keep'
p3699
I21
stRp3700
sg1635
g4
((dp3701
S't_ny_c_take'
p3702
I4
sS't_qrr_c_keep'
p3703
I2
sS't_sd_c_keep'
p3704
I5
sS't_%_t_take'
p3705
I1
sS't_^q_c_keep'
p3706
I1
sS't_ad_c_take'
p3707
I1
sS't_%_c_keep'
p3708
I4
sS't_qy_c_keep'
p3709
I9
sS't_arp_nd_c_take'
p3710
I1
sS't_^2_c_keep'
p3711
I1
sS't_ng_c_take'
p3712
I2
sS't_na_c_take'
p3713
I10
sS't_^h_t_take'
p3714
I1
sS't_sd_c_take'
p3715
I49
sS't_%_c_take'
p3716
I3
sS't_br_c_take'
p3717
I1
sS't_sv_c_take'
p3718
I8
sS't_ny_t_take'
p3719
I12
sS't_qy_c_take'
p3720
I1
sS't_b_t_take'
p3721
I11
sS't_h_c_take'
p3722
I2
sS't_b_t_keep'
p3723
I3
sS't_no_c_take'
p3724
I5
sS't_qy^d_c_keep'
p3725
I1
sS't_nn_t_take'
p3726
I25
sS't_qw_c_keep'
p3727
I6
sS't_nn_c_take'
p3728
I8
sS't_%_t_keep'
p3729
I12
stRp3730
sS't_ny_t_keep'
p3731
g4
((dp3732
S't_aa_c_take'
p3733
I1
sS't_na_t_keep'
p3734
I4
sS't_qw_c_take'
p3735
I5
sS't_%_t_take'
p3736
I3
sS't_fo_o_fw_"_by_bc_c_take'
p3737
I1
sS't_b_c_take'
p3738
I6
sS't_^h_c_take'
p3739
I1
sS't_ad_c_take'
p3740
I1
sS't_%_c_keep'
p3741
I15
sS't_^2_c_keep'
p3742
I1
sS't_ar_c_take'
p3743
I1
sS't_bf_c_take'
p3744
I1
sS't_b^m_t_take'
p3745
I13
sS't_sd_t_keep'
p3746
I3
sS't_qy_c_take'
p3747
I18
sS't_na_c_keep'
p3748
I1
sS't_b_t_take'
p3749
I33
sS't_b_t_keep'
p3750
I2
sS't_bk_t_take'
p3751
I19
sS't_nn_c_take'
p3752
I1
sS't_ba_c_take'
p3753
I11
sS't_bk_c_take'
p3754
I5
sS't_sd_c_keep'
p3755
I178
sS't_sd_c_take'
p3756
I33
sS't_b^m_c_take'
p3757
I3
sS't_ar_c_keep'
p3758
I1
sS't_^q_c_keep'
p3759
I1
sS't_ny_t_keep'
p3760
I42
sS't_bh_c_take'
p3761
I1
sS't_qy^d_c_take'
p3762
I7
sS't_^h_t_take'
p3763
I1
sS't_qh_c_keep'
p3764
I1
sS't_%_c_take'
p3765
I5
sS't_sv_c_take'
p3766
I14
sS't_sv_c_keep'
p3767
I18
sS't_ny_t_take'
p3768
I2
sS't_%_t_keep'
p3769
I3
sS't_^2_c_take'
p3770
I1
sS't_ny_c_keep'
p3771
I3
sS't_aa_t_take'
p3772
I2
sS't_qy_c_keep'
p3773
I2
sS't_fc_c_take'
p3774
I1
sS't_ba_t_take'
p3775
I1
sS't_nn_t_take'
p3776
I1
stRp3777
sg157
g4
((dp3778
S'c_^g_t_keep'
p3779
I19
sg1242
I6
stRp3780
sg56
g4
((dp3781
S't_sd_c_take'
p3782
I1
sS't_aa_t_keep'
p3783
I1
sS't_aap_am_c_keep'
p3784
I2
sS't_qo_c_keep'
p3785
I1
sS't_sv_c_keep'
p3786
I3
sS't_b_t_take'
p3787
I1
sS't_b_c_take'
p3788
I1
stRp3789
sg3074
g4
((dp3790
S'c_arp_nd_t_keep'
p3791
I6
sg1494
I133
stRp3792
sg2254
g4
((dp3793
S'c_h_c_keep'
p3794
I338
sS'c_h_t_keep'
p3795
I6
stRp3796
sS't_ng_c_take'
p3797
g4
((dp3798
S'c_ng_t_keep'
p3799
I27
sg2407
I191
stRp3800
sg3688
g4
((dp3801
S't_nn_t_keep'
p3802
I2
sS't_aa_c_take'
p3803
I5
sS't_bk_t_keep'
p3804
I11
sS't_%_t_take'
p3805
I2
sS't_b_c_take'
p3806
I3
sS't_aa_t_keep'
p3807
I11
sS't_%_c_keep'
p3808
I5
sS't_b_t_take'
p3809
I25
sS't_bf_c_take'
p3810
I1
sS't_sd_c_take'
p3811
I47
sS't_qo_c_keep'
p3812
I2
sS't_qy_c_take'
p3813
I1
sS't_^h_c_keep'
p3814
I1
sS't_b_t_keep'
p3815
I42
sS't_aa_c_keep'
p3816
I3
sg593
I1
sS't_bk_t_take'
p3817
I1
sS't_qw_c_take'
p3818
I2
sS't_ba_c_keep'
p3819
I6
sS't_sd_c_keep'
p3820
I36
sS't_ba_t_keep'
p3821
I2
sS't_fc_c_keep'
p3822
I2
sS't_ny_t_keep'
p3823
I3
sS't_b_c_keep'
p3824
I2
sS't_b^m_c_keep'
p3825
I1
sS't_sd_t_take'
p3826
I2
sS't_qy_c_keep'
p3827
I6
sS't_qy^d_c_take'
p3828
I1
sS't_%_c_take'
p3829
I5
sS't_^q_c_take'
p3830
I1
sS't_sv_c_take'
p3831
I7
sS't_aa_t_take'
p3832
I19
sS't_ny_t_take'
p3833
I10
sS't_bk_c_keep'
p3834
I2
sS't_fc_c_take'
p3835
I1
sS't_qw_c_keep'
p3836
I8
sS't_%_t_keep'
p3837
I4
sS't_^g_t_keep'
p3838
I1
sS't_sv_c_keep'
p3839
I9
sS't_qy^d_c_keep'
p3840
I2
sS't_h_c_take'
p3841
I1
sS't_nn_t_take'
p3842
I2
stRp3843
sS't_^h_t_take'
p3844
g4
((dp3845
S't_sd_c_take'
p3846
I5
sS't_%_c_take'
p3847
I1
sS't_sd_c_keep'
p3848
I8
sS't_nn_c_keep'
p3849
I1
sS't_sv_c_take'
p3850
I1
sS't_nn_t_keep'
p3851
I1
sS't_sv_c_keep'
p3852
I1
sS't_%_t_take'
p3853
I1
sS't_qy_c_take'
p3854
I7
sS't_^h_c_keep'
p3855
I1
sS't_qy^d_c_take'
p3856
I3
sS't_no_c_keep'
p3857
I1
sS't_^h_t_take'
p3858
I1
stRp3859
sg1162
g4
((dp3860
g2715
I22027
sS'c_sd_t_keep'
p3861
I349
stRp3862
sg687
g4
((dp3863
S'c_%_c_keep'
p3864
I1839
sS'c_%_t_keep'
p3865
I1306
stRp3866
sg1611
g4
((dp3867
S't_b_t_take'
p3868
I69
sS't_ad_c_keep'
p3869
I1
sS't_bf_c_keep'
p3870
I1
sS't_qw_c_take'
p3871
I2
sS't_sv_t_keep'
p3872
I1
sS't_fo_o_fw_"_by_bc_c_take'
p3873
I2
sS't_b_c_take'
p3874
I6
sg978
I1
sS't_t1_c_take'
p3875
I1
sS't_bf_c_take'
p3876
I4
sS't_qo_c_keep'
p3877
I7
sS't_b^m_t_take'
p3878
I3
sS't_qy_c_take'
p3879
I26
sS't_na_c_keep'
p3880
I2
sS't_^h_c_keep'
p3881
I4
sS't_na_t_keep'
p3882
I1
sS't_aa_c_keep'
p3883
I2
sS't_bk_t_keep'
p3884
I5
sS't_%_t_keep'
p3885
I163
sS't_bk_c_take'
p3886
I1
sS't_qo_c_take'
p3887
I1
sS't_^2_t_take'
p3888
I2
sS't_ba_t_keep'
p3889
I2
sS't_arp_nd_t_take'
p3890
I5
sS't_h_c_keep'
p3891
I4
sS't_br_c_keep'
p3892
I1
sg3656
I182
sS't_qy^d_c_take'
p3893
I7
sS't_aap_am_c_keep'
p3894
I1
sS't_bh_c_take'
p3895
I3
sS't_b_c_keep'
p3896
I1
sS't_b^m_c_keep'
p3897
I1
sS't_qh_c_keep'
p3898
I1
sg588
I132
sS't_qw_t_take'
p3899
I3
sS't_br_c_take'
p3900
I33
sS't_sv_c_take'
p3901
I61
sS't_aa_t_take'
p3902
I7
sg2972
I2
sg788
I136
sS't_^g_t_keep'
p3903
I5
sS't_ad_c_take'
p3904
I4
sS't_ny_c_keep'
p3905
I2
sS't_sv_c_keep'
p3906
I43
sS't_qy_c_keep'
p3907
I176
sS't_qy_t_keep'
p3908
I5
sS't_h_c_take'
p3909
I11
sS't_ba_t_take'
p3910
I1
sS't_nn_t_keep'
p3911
I5
sS't_bk_c_keep'
p3912
I2
sS't_aa_c_take'
p3913
I6
sS't_ba_c_keep'
p3914
I4
sS't_sd_c_keep'
p3915
I100
sg3274
I3
sS't_^h_c_take'
p3916
I34
sS't_qy_t_take'
p3917
I6
sS't_aa_t_keep'
p3918
I2
sS't_%_c_keep'
p3919
I43
sg3318
I346
sS't_br_t_take'
p3920
I13
sS't_br_t_keep'
p3921
I1
sS't_sd_t_keep'
p3922
I1
sS't_fo_o_fw_"_by_bc_t_keep'
p3923
I4
sS't_b_t_keep'
p3924
I12
sg1461
I110
sS't_ba_c_take'
p3925
I5
sS't_bh_c_keep'
p3926
I2
sS't_ar_c_keep'
p3927
I1
sS't_b^m_c_take'
p3928
I6
sS't_fo_o_fw_"_by_bc_t_take'
p3929
I1
sS't_%_t_take'
p3930
I58
sg2465
I76
sS't_ny_t_keep'
p3931
I4
sS't_^g_c_keep'
p3932
I3
sS't_arp_nd_c_take'
p3933
I59
sg3797
I156
sS't_sd_t_take'
p3934
I11
sg3844
I10
sS't_qh_c_take'
p3935
I7
sS't_sd_c_take'
p3936
I343
sS't_%_c_take'
p3937
I53
sS't_ny_t_take'
p3938
I940
sS't_aap_am_c_take'
p3939
I1
sS't_fc_c_take'
p3940
I2
sS't_qw_c_keep'
p3941
I24
sS't_^2_c_take'
p3942
I4
sS't_fo_o_fw_"_by_bc_c_keep'
p3943
I4
sS't_oo_co_cc_c_take'
p3944
I1
sS't_ng_t_take'
p3945
I4
sS't_qy^d_c_keep'
p3946
I23
sS't_nn_t_take'
p3947
I478
sS't_fa_c_keep'
p3948
I2
stRp3949
sg126
g4
((dp3950
g1189
I32
sS'c_aap_am_t_keep'
p3951
I8
stRp3952
sg919
g4
((dp3953
S't_ad_c_keep'
p3954
I3
sS't_na_t_keep'
p3955
I8
sS't_qw_c_take'
p3956
I38
sS't_b_c_take'
p3957
I5
sS't_b_t_take'
p3958
I95
sS't_aa_c_take'
p3959
I2
sS't_t1_c_take'
p3960
I1
sS't_bf_c_take'
p3961
I2
sS't_qo_c_keep'
p3962
I2
sS't_b^m_t_take'
p3963
I17
sS't_qy_c_take'
p3964
I58
sS't_na_c_keep'
p3965
I8
sS't_^h_c_keep'
p3966
I1
sS't_qy^d_t_take'
p3967
I1
sS't_aa_c_keep'
p3968
I5
sS't_bk_t_take'
p3969
I60
sS't_ba_c_keep'
p3970
I3
sS't_qo_c_take'
p3971
I4
sS't_%_t_take'
p3972
I15
sS't_ba_t_keep'
p3973
I1
sS't_bf_c_keep'
p3974
I1
sS't_fc_c_keep'
p3975
I2
sS't_h_c_keep'
p3976
I2
sS't_fo_o_fw_"_by_bc_t_take'
p3977
I1
sS't_qy^d_c_take'
p3978
I20
sS't_bh_c_take'
p3979
I5
sS't_b^m_c_keep'
p3980
I1
sS't_qh_c_keep'
p3981
I1
sS't_sv_c_take'
p3982
I62
sS't_qw^d_c_keep'
p3983
I1
sS't_aa_t_take'
p3984
I3
sS't_ar_t_keep'
p3985
I1
sS't_no_c_take'
p3986
I2
sS't_b^m_t_keep'
p3987
I1
sS't_ny_c_keep'
p3988
I13
sS't_sv_c_keep'
p3989
I74
sS't_qy_c_keep'
p3990
I20
sS't_qy_t_keep'
p3991
I1
sS't_arp_nd_c_keep'
p3992
I1
sS't_h_c_take'
p3993
I5
sS't_ba_t_take'
p3994
I18
sS't_nn_t_keep'
p3995
I2
sg3
I2
sS't_bk_c_take'
p3996
I19
sS't_sd_c_keep'
p3997
I748
sS't_^h_c_take'
p3998
I6
sS't_qy_t_take'
p3999
I1
sS't_ad_c_take'
p4000
I1
sS't_%_c_keep'
p4001
I58
sS't_bd_c_take'
p4002
I1
sS't_na_c_take'
p4003
I1
sS't_ar_c_take'
p4004
I2
sS't_%_t_keep'
p4005
I23
sS't_^2_c_keep'
p4006
I1
sS't_b_t_keep'
p4007
I13
sS't_ba_c_take'
p4008
I46
sS't_ny_c_take'
p4009
I5
sS't_b^m_c_take'
p4010
I3
sS't_t3_c_take'
p4011
I2
sg3731
I182
sS't_qw^d_c_take'
p4012
I1
sS't_bh_t_take'
p4013
I4
sS't_qh_c_take'
p4014
I1
sS't_sd_c_take'
p4015
I150
sS't_%_c_take'
p4016
I20
sS't_ny_t_take'
p4017
I4
sS't_ng_c_keep'
p4018
I1
sS't_qw_c_keep'
p4019
I9
sS't_fo_o_fw_"_by_bc_t_keep'
p4020
I1
sS't_qrr_c_take'
p4021
I5
sS't_qy^d_c_keep'
p4022
I2
sS't_sd_t_keep'
p4023
I14
sS't_nn_t_take'
p4024
I3
stRp4025
sg1344
g4
((dp4026
S'c_aap_am_c_keep'
p4027
I35
sg2415
I6
stRp4028
sg1492
g4
((dp4029
S't_aa_c_take'
p4030
I1
sS't_fc_c_keep'
p4031
I5
sS't_sd_c_keep'
p4032
I6
sS't_fo_o_fw_"_by_bc_t_take'
p4033
I3
sS't_fc_t_keep'
p4034
I6
sS't_ft_c_keep'
p4035
I1
sS't_%_c_keep'
p4036
I2
sS't_fa_c_keep'
p4037
I2
sS't_t3_c_keep'
p4038
I1
sS't_sd_c_take'
p4039
I3
sS't_ft_c_take'
p4040
I2
sg1618
I5
sS't_sv_c_keep'
p4041
I4
sS't_qy_c_take'
p4042
I1
sS't_fc_t_take'
p4043
I7
sS't_fo_o_fw_"_by_bc_t_keep'
p4044
I1
sS't_ft_t_keep'
p4045
I1
sS't_fc_c_take'
p4046
I4
stRp4047
sg3386
g4
((dp4048
S'c_fa_c_keep'
p4049
I79
sg723
I35
stRp4050
sg3890
g4
((dp4051
S't_ba_c_keep'
p4052
I1
sS't_qo_c_take'
p4053
I1
sS't_sd_c_keep'
p4054
I1
sS't_sd_c_take'
p4055
I2
sS't_sv_c_keep'
p4056
I6
sS't_sv_c_take'
p4057
I1
sS't_oo_co_cc_c_take'
p4058
I1
sS't_arp_nd_c_keep'
p4059
I1
stRp4060
sg149
g4
((dp4061
g2660
I90
sS'c_^2_c_keep'
p4062
I317
stRp4063
sg1100
g4
((dp4064
S'c_qrr_c_keep'
p4065
I25
sS'c_qrr_t_keep'
p4066
I1
stRp4067
sg3320
g4
((dp4068
S'c_na_c_keep'
p4069
I2046
sg1708
I462
stRp4070
sg2100
g4
((dp4071
S'c_^g_t_keep'
p4072
I8
sS'c_^g_c_keep'
p4073
I2
stRp4074
sg3945
g4
((dp4075
S't_b^m_t_take'
p4076
I1
sS't_sd_c_keep'
p4077
I1
sS't_bk_t_take'
p4078
I1
sS't_sd_c_take'
p4079
I1
stRp4080
sg1606
g4
((dp4081
S'c_qh_c_keep'
p4082
I4002
sg1804
I488
stRp4083
sg1705
g4
((dp4084
S't_sd_c_take'
p4085
I1
sS't_ny_t_take'
p4086
I2
sS't_na_c_take'
p4087
I1
sS't_nn_c_take'
p4088
I1
sS't_nn_t_take'
p4089
I1
stRp4090
sg148
g4
((dp4091
S't_sd_c_keep'
p4092
I26
sS't_aa_c_take'
p4093
I1
sS't_ad_c_keep'
p4094
I1
sS't_sd_c_take'
p4095
I5
sS't_b^m_c_take'
p4096
I1
sS't_qw_c_take'
p4097
I1
sS't_%_t_take'
p4098
I3
sS't_b_c_take'
p4099
I1
sS't_ny_t_keep'
p4100
I1
sS't_aa_t_keep'
p4101
I1
sS't_%_c_keep'
p4102
I2
sS't_qy^d_c_take'
p4103
I1
sS't_b_t_keep'
p4104
I1
sS't_sd_t_take'
p4105
I2
sS't_ar_c_take'
p4106
I1
sS't_sv_c_take'
p4107
I4
sS't_b^m_t_take'
p4108
I2
sS't_sd_t_keep'
p4109
I3
sS't_qy_c_take'
p4110
I2
sS't_sv_c_keep'
p4111
I2
sS't_b_t_take'
p4112
I13
sS't_fc_t_take'
p4113
I1
sS't_%_t_keep'
p4114
I1
sS't_ba_t_take'
p4115
I1
sS't_aa_t_take'
p4116
I2
sS't_bk_t_take'
p4117
I3
sS't_fp_c_keep'
p4118
I1
sS't_ba_c_take'
p4119
I1
stRp4120
sg2462
g4
((dp4121
S'c_fp_t_keep'
p4122
I9
sS'c_fp_c_keep'
p4123
I45
stRp4124
sg3947
g4
((dp4125
S't_nn_t_keep'
p4126
I109
sS't_nn_c_keep'
p4127
I5
sS't_qw_c_take'
p4128
I2
sS't_sd_c_keep'
p4129
I446
sS't_b_c_take'
p4130
I3
sS't_ad_c_take'
p4131
I1
sS't_%_c_keep'
p4132
I14
sS't_b_t_take'
p4133
I15
sS't_bf_t_take'
p4134
I1
sS't_b^m_t_take'
p4135
I11
sS't_sd_t_keep'
p4136
I3
sS't_qy_c_take'
p4137
I13
sS't_^h_c_keep'
p4138
I1
sS't_b_t_keep'
p4139
I1
sS't_aa_c_keep'
p4140
I1
sS't_bk_t_take'
p4141
I9
sS't_ba_c_take'
p4142
I2
sS't_bk_c_take'
p4143
I5
sS't_qo_c_take'
p4144
I1
sS't_bh_t_keep'
p4145
I1
sS't_h_c_keep'
p4146
I1
sS't_%_t_take'
p4147
I2
sS't_qy^d_c_take'
p4148
I6
sS't_bh_c_take'
p4149
I2
sS't_bh_t_take'
p4150
I1
sg1557
I1
sS't_no_c_keep'
p4151
I1
sS't_sd_c_take'
p4152
I35
sS't_%_c_take'
p4153
I3
sS't_sv_c_take'
p4154
I11
sS't_sv_c_keep'
p4155
I19
sS't_ng_c_keep'
p4156
I12
sS't_qw_c_keep'
p4157
I1
sS't_%_t_keep'
p4158
I12
sS't_aa_t_take'
p4159
I1
sS't_qy_c_keep'
p4160
I5
sS't_ba_t_take'
p4161
I2
sS't_nn_t_take'
p4162
I2
stRp4163
s.