cnltk.probability
ConditionalFreqDist
p1
(tRp2
S'c_^g_t'
p3
cnltk.probability
FreqDist
p4
((dp5
S't_%_t'
p6
I1
sS't_qy^d_c'
p7
I1
sS't_fc_t'
p8
I1
sS't_bk_t'
p9
I2
sS't_ba_c'
p10
I1
sS't_aa_c'
p11
I2
sS't_bf_c'
p12
I1
sS't_ng_c'
p13
I1
sS't_sv_c'
p14
I1
sS't_qy_c'
p15
I3
sS't_qw_c'
p16
I1
sS't_sd_c'
p17
I6
sS't_b_t'
p18
I11
sS't_qw_t'
p19
I1
sS't_%_c'
p20
I1
sS't_b_c'
p21
I1
stRp22
sS't_t1_c'
p23
g4
((dp24
S'c_t1_t'
p25
I6
sS'c_t1_c'
p26
I89
stRp27
sS'c_t3_t'
p28
g4
((dp29
S't_sv_c'
p30
I1
sS't_ny_t'
p31
I1
sS't_ad_c'
p32
I2
sS't_t3_t'
p33
I9
sS't_h_c'
p34
I1
sS't_qw_c'
p35
I2
sS't_aa_c'
p36
I1
sS't_t3_c'
p37
I25
sS't_%_t'
p38
I2
sS't_fa_t'
p39
I1
sS't_sd_c'
p40
I23
sS't_b_t'
p41
I9
sS't_^h_c'
p42
I1
sS't_sd_t'
p43
I1
sS't_fa_c'
p44
I1
sS't_%_c'
p45
I2
sS't_b_c'
p46
I2
stRp47
sS'c_aa_t'
p48
g4
((dp49
S't_ny_t'
p50
I11
sS't_ad_c'
p51
I14
sS't_b^m_c'
p52
I5
sS't_fp_t'
p53
I1
sS't_t3_t'
p54
I1
sS't_aa_t'
p55
I344
sS't_ba_t'
p56
I7
sS't_oo_co_cc_c'
p57
I1
sS't_h_c'
p58
I19
sS't_ny_c'
p59
I3
sS't_ba_c'
p60
I67
sS't_aa_c'
p61
I491
sS't_b^m_t'
p62
I9
sS't_sv_c'
p63
I685
sS't_qy_c'
p64
I71
sS't_qw^d_c'
p65
I1
sS't_sd_c'
p66
I819
sS't_b_t'
p67
I550
sS't_^q_c'
p68
I4
sS't_sd_t'
p69
I4
sS't_bf_c'
p70
I16
sS't_bd_c'
p71
I2
sS't_qy^d_c'
p72
I14
sS't_aap_am_c'
p73
I2
sS't_qo_c'
p74
I12
sS't_b_c'
p75
I31
sS't_^h_c'
p76
I8
sS't_bh_c'
p77
I9
sS't_^2_c'
p78
I15
sS't_na_c'
p79
I3
sS't_fc_t'
p80
I12
sS't_nn_c'
p81
I1
sS't_bk_t'
p82
I1
sS't_no_c'
p83
I1
sS't_nn_t'
p84
I8
sS't_fc_c'
p85
I35
sS't_na_t'
p86
I1
sS't_^2_t'
p87
I1
sS't_^h_t'
p88
I1
sS't_ng_c'
p89
I3
sS't_%_t'
p90
I88
sS't_qw_c'
p91
I21
sS't_ar_c'
p92
I3
sS't_arp_nd_c'
p93
I3
sS't_fo_o_fw_"_by_bc_t'
p94
I1
sS't_arp_nd_t'
p95
I1
sS't_ar_t'
p96
I1
sS't_br_c'
p97
I3
sS't_%_c'
p98
I171
sS't_qh_c'
p99
I12
sS't_ft_c'
p100
I1
sS't_fo_o_fw_"_by_bc_c'
p101
I2
stRp102
sS't_b^m_c'
p103
g4
((dp104
S'c_b^m_c'
p105
I157
sS'c_b^m_t'
p106
I141
stRp107
sS't_fp_t'
p108
g4
((dp109
S't_%_t'
p110
I1
sS't_ny_t'
p111
I1
sS't_ad_c'
p112
I1
sS't_fp_t'
p113
I20
sS't_br_c'
p114
I1
sS't_na_c'
p115
I1
sS't_ba_t'
p116
I1
sS't_ad_t'
p117
I1
sS't_ny_c'
p118
I2
sS't_fp_c'
p119
I29
sS't_sv_c'
p120
I3
sS't_qy_c'
p121
I3
sS't_bd_t'
p122
I1
sS't_qw^d_c'
p123
I1
sS't_sd_c'
p124
I16
sS't_b_t'
p125
I10
sS't_qw_c'
p126
I3
sS't_fa_c'
p127
I2
sS't_%_c'
p128
I2
sS't_qo_c'
p129
I1
stRp130
sS't_t3_t'
p131
g4
((dp132
S't_%_t'
p133
I1
sS't_sv_c'
p134
I2
sS't_b_t'
p135
I1
sS't_ad_c'
p136
I1
sS't_sd_c'
p137
I3
sS't_t3_t'
p138
I1
sS't_aa_t'
p139
I1
sS't_fa_c'
p140
I1
sS't_%_c'
p141
I1
sS't_ny_c'
p142
I1
sS't_t3_c'
p143
I8
stRp144
sS'c_^2_c'
p145
g4
((dp146
S'c_^2_c'
p147
I1107
sS'c_^2_t'
p148
I457
stRp149
sS'c_aa_c'
p150
g4
((dp151
S'c_aa_c'
p152
I2361
sS'c_aa_t'
p153
I1456
stRp154
sS't_h_c'
p155
g4
((dp156
S'c_h_t'
p157
I18
sS'c_h_c'
p158
I1024
stRp159
sS'c_^2_t'
p160
g4
((dp161
S't_ny_t'
p162
I9
sS't_ad_c'
p163
I1
sS't_b^m_c'
p164
I1
sS't_aa_t'
p165
I45
sS't_ba_t'
p166
I5
sS't_h_c'
p167
I1
sS't_ad_t'
p168
I1
sS't_ba_c'
p169
I25
sS't_aa_c'
p170
I15
sS't_b^m_t'
p171
I3
sS't_sv_c'
p172
I47
sS't_qy_c'
p173
I16
sS't_sd_c'
p174
I72
sS't_b_t'
p175
I217
sS't_^q_c'
p176
I1
sS't_qy^d_c'
p177
I4
sS't_qo_c'
p178
I1
sS't_b_c'
p179
I8
sS't_%_t'
p180
I43
sS't_bh_c'
p181
I4
sS't_^2_c'
p182
I12
sS't_na_c'
p183
I2
sS't_fc_t'
p184
I2
sS't_bk_t'
p185
I1
sS't_no_c'
p186
I1
sS't_nn_t'
p187
I1
sS't_^g_t'
p188
I2
sS't_fc_c'
p189
I1
sS't_bf_c'
p190
I2
sS't_^2_t'
p191
I1
sS't_bh_t'
p192
I1
sS't_br_t'
p193
I1
sS't_qw_c'
p194
I1
sS't_ar_c'
p195
I1
sS't_ar_t'
p196
I1
sS't_%_c'
p197
I20
stRp198
sS'c_^g_c'
p199
g4
((dp200
g3
I8
sS'c_^g_c'
p201
I4
stRp202
sS'c_aap_am_t'
p203
g4
((dp204
S't_%_t'
p205
I3
sS't_ny_t'
p206
I1
sS't_ad_c'
p207
I1
sS't_na_c'
p208
I1
sS't_aa_t'
p209
I6
sS't_ny_c'
p210
I1
sS't_no_c'
p211
I1
sS't_ba_c'
p212
I3
sS't_aa_c'
p213
I1
sS't_bf_c'
p214
I1
sS't_b^m_t'
p215
I1
sS't_sv_c'
p216
I15
sS't_qy_c'
p217
I2
sS't_sd_c'
p218
I25
sS't_b_t'
p219
I13
sS't_%_c'
p220
I2
sS't_aap_am_c'
p221
I4
stRp222
sS't_t3_c'
p223
g4
((dp224
S'c_t3_c'
p225
I69
sS'c_t3_t'
p226
I15
stRp227
sS't_fp_c'
p228
g4
((dp229
S'c_fp_t'
p230
I42
sS'c_fp_c'
p231
I65
stRp232
sS't_b^m_t'
p233
g4
((dp234
S't_ny_t'
p235
I4
sS't_ad_c'
p236
I1
sS't_b^m_c'
p237
I1
sS't_aa_t'
p238
I14
sS't_ba_t'
p239
I5
sS't_ny_c'
p240
I1
sS't_ba_c'
p241
I11
sS't_aa_c'
p242
I3
sS't_fp_c'
p243
I1
sS't_b^m_t'
p244
I3
sS't_sv_c'
p245
I33
sS't_qy_c'
p246
I15
sS't_bf_c'
p247
I1
sS't_sd_c'
p248
I62
sS't_b_t'
p249
I85
sS't_fa_c'
p250
I1
sS't_qo_c'
p251
I2
sS't_b_c'
p252
I2
sS't_br_t'
p253
I3
sS't_bk_c'
p254
I4
sS't_qy^d_c'
p255
I3
sS't_na_c'
p256
I2
sS't_nn_c'
p257
I1
sS't_bk_t'
p258
I8
sS't_nn_t'
p259
I2
sS't_fc_c'
p260
I2
sS't_na_t'
p261
I1
sS't_bh_t'
p262
I2
sS't_%_t'
p263
I12
sS't_qw_c'
p264
I8
sS't_arp_nd_c'
p265
I1
sS't_^h_c'
p266
I1
sS't_%_c'
p267
I14
sS't_qh_c'
p268
I1
stRp269
sS't_h_t'
p270
g4
((dp271
S't_nn_t'
p272
I1
sS't_%_c'
p273
I1
stRp274
sS't_sv_c'
p275
g4
((dp276
S'c_sv_t'
p277
I413
sS'c_sv_c'
p278
I22035
stRp279
sS't_bd_t'
p280
g4
((dp281
S't_%_t'
p282
I1
sS't_qy_c'
p283
I1
sS't_bd_t'
p284
I8
sS't_sd_c'
p285
I3
sS't_sv_c'
p286
I1
sS't_b_t'
p287
I1
sS't_fc_t'
p288
I2
sS't_^h_c'
p289
I1
sS't_bd_c'
p290
I2
stRp291
sS'c_oo_co_cc_c'
p292
g4
((dp293
S'c_oo_co_cc_t'
p294
I98
sS'c_oo_co_cc_c'
p295
I518
stRp296
sS'c_qo_t'
p297
g4
((dp298
S't_ny_t'
p299
I7
sS't_b^m_c'
p300
I5
sS't_aa_t'
p301
I16
sS't_ba_t'
p302
I1
sS't_h_c'
p303
I1
sS't_ny_c'
p304
I1
sS't_%_c'
p305
I17
sS't_ba_c'
p306
I20
sS't_aa_c'
p307
I9
sS't_b^m_t'
p308
I1
sS't_sv_c'
p309
I24
sS't_qy_c'
p310
I72
sS't_qw^d_c'
p311
I2
sS't_qrr_c'
p312
I2
sS't_sd_c'
p313
I36
sS't_b_t'
p314
I206
sS't_bf_c'
p315
I3
sS't_qy_t'
p316
I1
sS't_bh_c'
p317
I14
sS't_qo_c'
p318
I13
sS't_b_c'
p319
I12
sS't_%_t'
p320
I8
sS't_bk_c'
p321
I9
sS't_qy^d_c'
p322
I7
sS't_^2_c'
p323
I1
sS't_na_c'
p324
I1
sS't_bk_t'
p325
I11
sS't_no_c'
p326
I1
sS't_nn_t'
p327
I2
sS't_na_t'
p328
I1
sS't_^2_t'
p329
I1
sS't_bh_t'
p330
I2
sS't_br_t'
p331
I1
sS't_qw_c'
p332
I19
sS't_arp_nd_c'
p333
I1
sS't_br_c'
p334
I2
sS't_fo_o_fw_"_by_bc_c'
p335
I1
stRp336
sS'c_bk_t'
p337
g4
((dp338
S't_ny_t'
p339
I5
sS't_ad_c'
p340
I1
sS't_fo_o_fw_"_by_bc_t'
p341
I2
sS't_b^m_c'
p342
I2
sS't_aa_t'
p343
I8
sS't_ba_t'
p344
I3
sS't_h_c'
p345
I1
sS't_ny_c'
p346
I2
sS't_ba_c'
p347
I23
sS't_aa_c'
p348
I4
sS't_b^m_t'
p349
I1
sS't_sv_c'
p350
I19
sS't_qy_c'
p351
I27
sS't_qw^d_c'
p352
I2
sS't_sd_c'
p353
I91
sS't_b_t'
p354
I155
sS't_bh_c'
p355
I3
sS't_qo_c'
p356
I4
sS't_b_c'
p357
I17
sS't_bk_c'
p358
I22
sS't_qy^d_c'
p359
I20
sS't_^2_c'
p360
I1
sS't_fc_t'
p361
I1
sS't_nn_c'
p362
I2
sS't_bk_t'
p363
I19
sS't_no_c'
p364
I1
sS't_nn_t'
p365
I3
sS't_fc_c'
p366
I4
sS't_bf_c'
p367
I17
sS't_%_t'
p368
I13
sS't_qw_c'
p369
I9
sS't_^h_c'
p370
I1
sS't_%_c'
p371
I20
sS't_ft_c'
p372
I1
stRp373
sS'c_sd_c'
p374
g4
((dp375
S'c_sd_c'
p376
I559994
sS'c_sd_t'
p377
I65660
stRp378
sS't_^q_c'
p379
g4
((dp380
S'c_^q_t'
p381
I25
sS'c_^q_c'
p382
I811
stRp383
sS'c_qw_t'
p384
g4
((dp385
S't_ny_t'
p386
I23
sS't_ad_c'
p387
I7
sS't_b^m_c'
p388
I35
sS't_bh_t'
p389
I10
sS't_aa_t'
p390
I27
sS't_ba_t'
p391
I17
sS't_h_c'
p392
I3
sS't_ny_c'
p393
I3
sS't_%_c'
p394
I39
sS't_ba_c'
p395
I69
sS't_aa_c'
p396
I8
sg233
I29
sS't_sv_c'
p397
I71
sS't_qy_c'
p398
I189
sS't_qw^d_c'
p399
I5
sS't_qrr_c'
p400
I11
sS't_sd_c'
p401
I158
sS't_na_t'
p402
I2
sS't_b_t'
p403
I442
sS't_sd_t'
p404
I4
sS't_qy^d_t'
p405
I4
sS't_qy_t'
p406
I8
sS't_sv_t'
p407
I1
sS't_qo_c'
p408
I5
sS't_b_c'
p409
I45
sS't_%_t'
p410
I36
sS't_bk_c'
p411
I85
sS't_bh_c'
p412
I44
sS't_^2_c'
p413
I3
sS't_bf_t'
p414
I2
sS't_^g_c'
p415
I2
sS't_nn_c'
p416
I1
sS't_bk_t'
p417
I93
sS't_qy^d_c'
p418
I46
sS't_no_c'
p419
I2
sS't_nn_t'
p420
I7
sS't_^g_t'
p421
I1
sS't_fc_c'
p422
I1
sS't_bf_c'
p423
I17
sS't_ng_c'
p424
I2
sS't_br_t'
p425
I10
sS't_qw_c'
p426
I104
sS't_ar_c'
p427
I1
sS't_na_c'
p428
I6
sS't_^h_c'
p429
I2
sS't_arp_nd_t'
p430
I1
sS't_qw_t'
p431
I1
sS't_br_c'
p432
I9
sS't_qh_c'
p433
I1
sS't_fo_o_fw_"_by_bc_c'
p434
I2
stRp435
sS'c_qo_c'
p436
g4
((dp437
S'c_qo_c'
p438
I2500
sg297
I530
stRp439
sg294
g4
((dp440
S't_%_t'
p441
I2
sS't_ny_t'
p442
I3
sS't_ad_c'
p443
I1
sS't_qy^d_c'
p444
I1
sS't_t3_t'
p445
I2
sS't_aa_t'
p446
I2
sS't_ba_t'
p447
I1
sS't_oo_co_cc_c'
p448
I6
sS't_h_c'
p449
I1
sS't_aa_c'
p450
I2
sS't_fc_c'
p451
I3
sS't_t3_c'
p452
I1
sS't_sv_c'
p453
I8
sS't_qy_c'
p454
I6
sS't_qw_c'
p455
I5
sS't_sd_c'
p456
I24
sS't_^2_c'
p457
I1
sS't_^2_t'
p458
I1
sS't_b_t'
p459
I14
sS't_^h_c'
p460
I2
sS't_arp_nd_t'
p461
I1
sS't_qy_t'
p462
I1
sS't_%_c'
p463
I2
sS't_qh_c'
p464
I1
sS't_ft_c'
p465
I1
sS't_fo_o_fw_"_by_bc_c'
p466
I1
sS't_b_c'
p467
I4
stRp468
sS't_bd_c'
p469
g4
((dp470
S'c_bd_t'
p471
I41
sS'c_bd_c'
p472
I38
stRp473
sS't_sv_t'
p474
g4
((dp475
S't_%_t'
p476
I1
sS't_sv_c'
p477
I7
sS't_b_t'
p478
I9
sS't_sd_c'
p479
I6
sS't_^2_c'
p480
I1
sS't_aa_t'
p481
I1
sS't_%_c'
p482
I2
sS't_sv_t'
p483
I3
stRp484
sS'c_qw_c'
p485
g4
((dp486
S'c_qw_c'
p487
I7682
sg384
I1644
stRp488
sS't_^q_t'
p489
g4
((dp490
S't_sv_c'
p491
I1
sS't_qy_c'
p492
I1
sS't_sd_c'
p493
I5
sS't_%_c'
p494
I1
sS't_^q_t'
p495
I2
sS't_^q_c'
p496
I14
stRp497
sg377
g4
((dp498
S't_t1_c'
p499
I44
sS't_ny_t'
p500
I956
sS't_ad_c'
p501
I169
sS't_b^m_c'
p502
I43
sS't_fp_t'
p503
I1
sS't_t3_t'
p504
I4
sS't_bh_t'
p505
I35
sS't_oo_co_cc_c'
p506
I28
sg155
I409
sS't_ad_t'
p507
I2
sS't_ny_c'
p508
I144
sS't_t1_t'
p509
I2
sg223
I21
sS't_fp_c'
p510
I2
sS't_b^m_t'
p511
I46
sg275
I5154
sS't_qy_c'
p512
I800
sS't_bd_t'
p513
I2
sS't_na_t'
p514
I49
sS't_b_t'
p515
I4512
sg379
I382
sg469
I15
sS't_qy_t'
p516
I16
sS't_sv_t'
p517
I4
sS't_^q_t'
p518
I12
sS't_b_c'
p519
I322
sS't_no_t'
p520
I1
sS't_bh_c'
p521
I138
sS't_na_c'
p522
I216
sS't_no_c'
p523
I81
sS't_bf_c'
p524
I55
sS't_ng_c'
p525
I82
sS't_br_t'
p526
I34
sS't_qw_c'
p527
I270
sS't_ar_c'
p528
I44
sS't_arp_nd_c'
p529
I65
sS't_fo_o_fw_"_by_bc_t'
p530
I20
sS't_arp_nd_t'
p531
I4
sS't_ar_t'
p532
I47
sS't_qw_t'
p533
I7
sS't_br_c'
p534
I34
sS't_^h_t'
p535
I12
sS't_aa_t'
p536
I1128
sS't_ba_t'
p537
I58
sS't_ba_c'
p538
I406
sS't_aa_c'
p539
I486
sS't_qy^d_t'
p540
I4
sS't_fa_t'
p541
I2
sS't_qrr_c'
p542
I4
sS't_sd_c'
p543
I42740
sS't_qo_t'
p544
I1
sS't_aap_am_t'
p545
I2
sS't_sd_t'
p546
I73
sS't_fa_c'
p547
I24
sS't_qy^d_c'
p548
I196
sS't_aap_am_c'
p549
I18
sS't_qo_c'
p550
I188
sS't_^h_c'
p551
I137
sS't_bk_c'
p552
I34
sS't_bf_t'
p553
I3
sS't_^2_c'
p554
I62
sS't_fc_t'
p555
I26
sS't_^g_c'
p556
I10
sS't_nn_c'
p557
I79
sS't_bk_t'
p558
I14
sS't_qw^d_c'
p559
I16
sS't_nn_t'
p560
I330
sS't_^g_t'
p561
I22
sS't_fc_c'
p562
I95
sS't_^2_t'
p563
I8
sS't_fo_o_fw_"_by_bc_c'
p564
I57
sS't_%_t'
p565
I2239
sS't_ft_t'
p566
I1
sS't_qh_t'
p567
I1
sS't_%_c'
p568
I3508
sS't_qh_c'
p569
I144
sS't_ft_c'
p570
I11
stRp571
sS'c_bk_c'
p572
g4
((dp573
S'c_bk_t'
p574
I94
sS'c_bk_c'
p575
I39
stRp576
sS'c_qrr_t'
p577
g4
((dp578
S't_%_t'
p579
I16
sS't_bk_c'
p580
I4
sS't_b^m_c'
p581
I2
sS't_^2_c'
p582
I4
sS't_na_c'
p583
I1
sS't_aa_t'
p584
I1
sS't_ba_t'
p585
I1
sS't_bk_t'
p586
I4
sS't_qy^d_c'
p587
I4
sS't_no_c'
p588
I1
sS't_%_c'
p589
I9
sS't_ba_c'
p590
I5
sS't_aa_c'
p591
I2
sS't_bf_c'
p592
I2
sS't_b^m_t'
p593
I3
sS't_sv_c'
p594
I3
sS't_qy_c'
p595
I18
sS't_na_t'
p596
I1
sS't_qrr_c'
p597
I2
sS't_sd_c'
p598
I12
sS't_b_t'
p599
I77
sS't_^q_c'
p600
I1
sS't_fo_o_fw_"_by_bc_t'
p601
I1
sS't_qw_c'
p602
I8
sS't_bh_c'
p603
I1
sS't_qh_c'
p604
I1
sS't_b_c'
p605
I3
stRp606
sS'c_^q_t'
p607
g4
((dp608
S't_%_t'
p609
I24
sS't_ny_t'
p610
I7
sS't_bh_c'
p611
I1
sS't_na_c'
p612
I2
sS't_aa_t'
p613
I14
sS't_nn_c'
p614
I1
sS't_nn_t'
p615
I3
sS't_h_c'
p616
I4
sS't_ny_c'
p617
I2
sS't_^g_t'
p618
I1
sS't_ba_c'
p619
I6
sS't_aa_c'
p620
I5
sS't_na_t'
p621
I2
sS't_b^m_t'
p622
I1
sS't_sv_c'
p623
I92
sS't_qy_c'
p624
I8
sS't_qw_c'
p625
I2
sS't_sd_c'
p626
I262
sS't_b_t'
p627
I63
sS't_^q_c'
p628
I276
sS't_^h_c'
p629
I1
sS't_qh_t'
p630
I1
sS't_sd_t'
p631
I1
sS't_%_c'
p632
I35
sS't_qh_c'
p633
I4
sS't_fo_o_fw_"_by_bc_c'
p634
I1
sg489
I6
sS't_b_c'
p635
I2
stRp636
sS'c_no_t'
p637
g4
((dp638
S't_no_t'
p639
I1
sS't_ny_t'
p640
I4
sS't_ad_c'
p641
I3
sS't_bh_c'
p642
I2
sS't_%_c'
p643
I14
sS't_na_c'
p644
I3
sS't_aa_t'
p645
I1
sS't_nn_c'
p646
I1
sS't_h_c'
p647
I1
sS't_ny_c'
p648
I1
sS't_no_c'
p649
I7
sS't_nn_t'
p650
I5
sS't_aa_c'
p651
I1
sS't_fc_c'
p652
I1
sS't_na_t'
p653
I1
sS't_ng_c'
p654
I3
sS't_sv_c'
p655
I37
sS't_qy_c'
p656
I3
sS't_qw_c'
p657
I3
sS't_%_t'
p658
I5
sS't_sd_c'
p659
I118
sS't_arp_nd_c'
p660
I1
sS't_b_t'
p661
I14
sS't_ar_t'
p662
I1
sS't_fa_c'
p663
I1
sS't_qy^d_c'
p664
I2
sS't_qh_c'
p665
I1
sS't_^h_t'
p666
I1
sS't_b_c'
p667
I1
stRp668
sS't_qy^d_c'
p669
g4
((dp670
S'c_qy^d_t'
p671
I49
sS'c_qy^d_c'
p672
I996
stRp673
sS't_bf_t'
p674
g4
((dp675
S't_%_t'
p676
I3
sS't_qy_c'
p677
I1
sS't_sd_c'
p678
I5
sS't_ba_c'
p679
I1
sS't_b_t'
p680
I4
sS't_b_c'
p681
I1
sS't_aa_t'
p682
I3
stRp683
sS'c_aap_am_c'
p684
g4
((dp685
S'c_aap_am_t'
p686
I67
sS'c_aap_am_c'
p687
I203
stRp688
sg382
g4
((dp689
g607
I811
sS'c_^q_c'
p690
I4161
stRp691
sS'c_qrr_c'
p692
g4
((dp693
g577
I187
sS'c_qrr_c'
p694
I990
stRp695
sS't_bf_c'
p696
g4
((dp697
S'c_bf_c'
p698
I730
sS'c_bf_t'
p699
I51
stRp700
sS't_bh_t'
p701
g4
((dp702
S't_no_t'
p703
I1
sS't_t1_c'
p704
I1
sS't_h_t'
p705
I1
sS't_bk_c'
p706
I1
sS't_qy^d_c'
p707
I2
sS't_%_c'
p708
I7
sS't_fc_t'
p709
I1
sS't_aa_t'
p710
I2
sS't_ba_t'
p711
I8
sS't_bk_t'
p712
I2
sS't_h_c'
p713
I1
sS't_ny_c'
p714
I2
sS't_ba_c'
p715
I15
sS't_aa_c'
p716
I3
sS't_bf_c'
p717
I2
sS't_bh_t'
p718
I9
sS't_sv_c'
p719
I15
sS't_qy_c'
p720
I25
sS't_qw_c'
p721
I7
sS't_%_t'
p722
I4
sS't_sd_c'
p723
I28
sS't_b_t'
p724
I56
sS't_nn_t'
p725
I1
sS't_ng_c'
p726
I2
sS't_bh_c'
p727
I2
sS't_fo_o_fw_"_by_bc_c'
p728
I1
sS't_b_c'
p729
I3
sS't_^h_c'
p730
I1
stRp731
sS'c_no_c'
p732
g4
((dp733
g637
I231
sS'c_no_c'
p734
I686
stRp735
sS'c_t1_t'
p736
g4
((dp737
S't_%_t'
p738
I4
sS't_t1_c'
p739
I5
sS't_ny_t'
p740
I1
sS't_qy^d_c'
p741
I1
sS't_^2_c'
p742
I1
sS't_na_c'
p743
I1
sS't_aa_t'
p744
I1
sS't_h_c'
p745
I2
sS't_ba_c'
p746
I1
sS't_b^m_t'
p747
I1
sS't_sv_c'
p748
I8
sS't_qy_c'
p749
I1
sS't_qw_c'
p750
I2
sS't_sd_c'
p751
I47
sS't_b_t'
p752
I1
sS't_^h_c'
p753
I6
sS't_sd_t'
p754
I1
sS't_bd_c'
p755
I1
sS't_%_c'
p756
I7
sS't_qh_c'
p757
I1
sS't_fo_o_fw_"_by_bc_c'
p758
I1
sS't_qo_c'
p759
I1
stRp760
sS't_qw_c'
p761
g4
((dp762
g485
I1644
sS'c_qw_t'
p763
I57
stRp764
sg528
g4
((dp765
S'c_ar_t'
p766
I50
sS'c_ar_c'
p767
I86
stRp768
sg506
g4
((dp769
S'c_oo_co_cc_t'
p770
I1
sg292
I98
stRp771
sS't_arp_nd_c'
p772
g4
((dp773
S'c_arp_nd_c'
p774
I164
sS'c_arp_nd_t'
p775
I6
stRp776
sS't_^h_c'
p777
g4
((dp778
S'c_^h_t'
p779
I76
sS'c_^h_c'
p780
I383
stRp781
sS'c_qy_t'
p782
g4
((dp783
S't_t1_c'
p784
I1
sS't_ny_t'
p785
I46
sS't_ad_c'
p786
I15
sg103
I34
sS't_bh_t'
p787
I23
sS't_aa_t'
p788
I78
sS't_ba_t'
p789
I42
sS't_oo_co_cc_c'
p790
I3
sS't_h_c'
p791
I11
sS't_ad_t'
p792
I2
sS't_ny_c'
p793
I10
sS't_%_c'
p794
I127
sS't_ba_c'
p795
I147
sS't_aa_c'
p796
I30
sS't_t3_c'
p797
I1
sS't_b^m_t'
p798
I46
sS't_sv_c'
p799
I212
sS't_qy_c'
p800
I395
sS't_qw^d_c'
p801
I2
sS't_qrr_c'
p802
I146
sS't_sd_c'
p803
I507
sS't_b_t'
p804
I1050
sS't_^q_c'
p805
I2
sS't_^h_c'
p806
I12
sS't_sd_t'
p807
I8
sS't_bf_c'
p808
I35
sS't_fa_c'
p809
I2
sS't_qy^d_t'
p810
I1
sS't_qy_t'
p811
I12
sS't_sv_t'
p812
I1
sS't_aap_am_c'
p813
I1
sS't_qo_c'
p814
I20
sS't_b_c'
p815
I82
sS't_bd_c'
p816
I2
sS't_%_t'
p817
I229
sS't_bk_c'
p818
I132
sS't_bh_c'
p819
I77
sS't_^2_c'
p820
I17
sS't_na_c'
p821
I14
sS't_fc_t'
p822
I4
sS't_^g_c'
p823
I3
sS't_nn_c'
p824
I4
sS't_bk_t'
p825
I213
sS't_qy^d_c'
p826
I81
sS't_no_c'
p827
I6
sS't_nn_t'
p828
I16
sS't_^g_t'
p829
I6
sS't_fc_c'
p830
I6
sS't_na_t'
p831
I4
sS't_^2_t'
p832
I6
sS't_fo_o_fw_"_by_bc_c'
p833
I10
sS't_ng_c'
p834
I3
sS't_br_t'
p835
I5
sS't_qw_c'
p836
I95
sS't_ar_c'
p837
I7
sS't_arp_nd_c'
p838
I3
sS't_fo_o_fw_"_by_bc_t'
p839
I8
sS't_bf_t'
p840
I1
sS't_ar_t'
p841
I4
sS't_qw_t'
p842
I4
sS't_br_c'
p843
I8
sS't_qh_c'
p844
I5
sS't_^h_t'
p845
I3
stRp846
sS't_arp_nd_t'
p847
g4
((dp848
S't_%_t'
p849
I1
sS't_sv_c'
p850
I7
sS't_sd_c'
p851
I3
sS't_arp_nd_c'
p852
I1
sS't_b_t'
p853
I1
sS't_aa_t'
p854
I1
sS't_ba_c'
p855
I1
sS't_aa_c'
p856
I2
stRp857
sg841
g4
((dp858
S't_%_t'
p859
I5
sS't_ad_c'
p860
I4
sS't_aa_t'
p861
I1
sS't_ba_t'
p862
I1
sS't_bk_t'
p863
I1
sS't_h_c'
p864
I2
sS't_ad_t'
p865
I1
sS't_ba_c'
p866
I3
sS't_aa_c'
p867
I1
sS't_bh_t'
p868
I1
sS't_sv_c'
p869
I18
sS't_qy_c'
p870
I3
sS't_qw^d_c'
p871
I1
sS't_ar_c'
p872
I3
sS't_sd_c'
p873
I73
sS't_ar_t'
p874
I34
sS't_b_t'
p875
I3
sS't_^h_c'
p876
I4
sS't_sd_t'
p877
I2
sS't_qw_c'
p878
I1
sS't_fa_c'
p879
I1
sS't_bd_c'
p880
I4
sS't_%_c'
p881
I4
sS't_aap_am_c'
p882
I1
stRp883
sS't_qw_t'
p884
g4
((dp885
S't_bk_c'
p886
I1
sS't_bh_c'
p887
I2
sS't_br_c'
p888
I1
sS't_bk_t'
p889
I1
sS't_ba_c'
p890
I2
sS't_aa_c'
p891
I1
sS't_qrr_c'
p892
I1
sS't_sv_c'
p893
I1
sS't_qy_c'
p894
I8
sS't_qw_c'
p895
I1
sS't_ar_c'
p896
I1
sS't_sd_c'
p897
I3
sS't_b_t'
p898
I7
sS't_qy_t'
p899
I1
sS't_%_c'
p900
I1
sS't_b_c'
p901
I1
stRp902
sg26
g4
((dp903
g736
I89
sS'c_t1_c'
p904
I295
stRp905
sS'c_qy_c'
p906
g4
((dp907
S'c_qy_c'
p908
I21597
sg782
I3929
stRp909
sS't_^h_t'
p910
g4
((dp911
S't_sv_c'
p912
I3
sS't_qy_c'
p913
I2
sS't_ny_t'
p914
I5
sS't_ad_c'
p915
I1
sS't_sd_c'
p916
I15
sS't_br_t'
p917
I1
sS't_b_t'
p918
I2
sS't_^h_c'
p919
I3
sS't_nn_c'
p920
I1
sS't_bk_t'
p921
I1
sS't_no_c'
p922
I2
sS't_nn_t'
p923
I2
sS't_^h_t'
p924
I1
sS't_ng_c'
p925
I4
stRp926
sg509
g4
((dp927
S't_sv_c'
p928
I1
sS't_sd_c'
p929
I1
stRp930
sS'c_sv_t'
p931
g4
((dp932
S't_t1_c'
p933
I9
sS't_ny_t'
p934
I153
sS't_ad_c'
p935
I67
sS't_b^m_c'
p936
I19
sS't_oo_co_cc_c'
p937
I6
sS't_h_c'
p938
I269
sS't_ny_c'
p939
I25
sS't_t3_c'
p940
I2
sS't_b^m_t'
p941
I34
sS't_sv_c'
p942
I8909
sS't_qy_c'
p943
I338
sS't_bd_t'
p944
I1
sS't_bf_c'
p945
I36
sS't_b_t'
p946
I2838
sS't_^q_c'
p947
I103
sS't_bd_c'
p948
I2
sS't_qy_t'
p949
I5
sS't_sv_t'
p950
I10
sS't_^q_t'
p951
I3
sS't_b_c'
p952
I149
sS't_bh_c'
p953
I57
sS't_na_c'
p954
I50
sS't_no_c'
p955
I22
sS't_na_t'
p956
I10
sg701
I12
sS't_br_t'
p957
I7
sS't_qw_c'
p958
I116
sS't_ar_c'
p959
I17
sS't_arp_nd_c'
p960
I11
sS't_fo_o_fw_"_by_bc_t'
p961
I10
sS't_arp_nd_t'
p962
I2
sS't_ar_t'
p963
I14
sS't_qw_t'
p964
I6
sS't_br_c'
p965
I15
sg910
I6
sS't_aa_t'
p966
I703
sS't_ba_t'
p967
I34
sS't_ba_c'
p968
I215
sS't_aa_c'
p969
I373
sS't_qy^d_t'
p970
I2
sS't_qw^d_c'
p971
I11
sS't_ng_c'
p972
I18
sS't_qrr_c'
p973
I2
sS't_sd_c'
p974
I4684
sS't_aap_am_t'
p975
I2
sS't_sd_t'
p976
I14
sS't_fa_c'
p977
I5
sS't_qy^d_c'
p978
I68
sS't_aap_am_c'
p979
I5
sS't_qo_c'
p980
I56
sS't_^h_c'
p981
I43
sS't_bk_c'
p982
I8
sS't_^2_c'
p983
I41
sS't_fc_t'
p984
I22
sS't_^g_c'
p985
I12
sS't_nn_c'
p986
I11
sS't_bk_t'
p987
I11
sS't_nn_t'
p988
I54
sS't_^g_t'
p989
I9
sS't_fc_c'
p990
I95
sS't_^2_t'
p991
I6
sS't_fo_o_fw_"_by_bc_c'
p992
I36
sS't_%_t'
p993
I881
sS't_qh_t'
p994
I1
sS't_%_c'
p995
I1360
sS't_qh_c'
p996
I125
stRp997
sg780
g4
((dp998
S'c_^h_t'
p999
I383
sS'c_^h_c'
p1000
I1110
stRp1001
sg301
g4
((dp1002
S't_t1_c'
p1003
I2
sS't_ny_t'
p1004
I22
sS't_ad_c'
p1005
I18
sS't_fo_o_fw_"_by_bc_t'
p1006
I5
sS't_qo_t'
p1007
I1
sS't_fp_t'
p1008
I2
sg131
I1
sS't_bh_t'
p1009
I2
sS't_aa_t'
p1010
I1347
sS't_ba_t'
p1011
I14
sS't_oo_co_cc_c'
p1012
I1
sS't_h_c'
p1013
I13
sS't_ad_t'
p1014
I2
sS't_ny_c'
p1015
I3
sS't_%_c'
p1016
I234
sS't_ba_c'
p1017
I102
sS't_aa_c'
p1018
I824
sS't_b^m_t'
p1019
I4
sS't_sv_c'
p1020
I1210
sS't_qy_c'
p1021
I59
sS't_bd_t'
p1022
I1
sS't_qw^d_c'
p1023
I1
sS't_sd_c'
p1024
I1458
sS't_b_t'
p1025
I515
sS't_^q_c'
p1026
I9
sS't_aap_am_t'
p1027
I2
sS't_sd_t'
p1028
I8
sg696
I77
sS't_fa_c'
p1029
I2
sS't_bd_c'
p1030
I8
sS't_b^m_c'
p1031
I17
sS't_aap_am_c'
p1032
I16
sS't_qo_c'
p1033
I9
sS't_b_c'
p1034
I28
sS't_no_t'
p1035
I1
sS't_^2_c'
p1036
I23
sS't_bk_c'
p1037
I2
sS't_bh_c'
p1038
I9
sS't_sv_t'
p1039
I2
sS't_na_c'
p1040
I7
sS't_fc_t'
p1041
I4
sS't_nn_c'
p1042
I2
sS't_bk_t'
p1043
I1
sS't_qy^d_c'
p1044
I17
sS't_no_c'
p1045
I4
sS't_nn_t'
p1046
I16
sS't_fc_c'
p1047
I23
sS't_na_t'
p1048
I2
sS't_ng_c'
p1049
I8
sS't_%_t'
p1050
I134
sS't_qw_c'
p1051
I27
sS't_ar_c'
p1052
I2
sg772
I7
sS't_^h_c'
p1053
I13
sS't_ft_t'
p1054
I2
sS't_arp_nd_t'
p1055
I1
sS't_ar_t'
p1056
I7
sS't_bf_t'
p1057
I1
sS't_br_c'
p1058
I1
sS't_qh_c'
p1059
I8
sS't_ft_c'
p1060
I2
sS't_fo_o_fw_"_by_bc_c'
p1061
I7
stRp1062
sS't_fo_o_fw_"_by_bc_t'
p1063
g4
((dp1064
S't_ny_t'
p1065
I6
sS't_ad_c'
p1066
I23
sS't_fp_t'
p1067
I1
sS't_aa_t'
p1068
I3
sS't_fo_o_fw_"_by_bc_t'
p1069
I7
sS't_oo_co_cc_c'
p1070
I1
sS't_h_c'
p1071
I1
sS't_ad_t'
p1072
I1
sS't_ny_c'
p1073
I1
sS't_ba_c'
p1074
I3
sS't_aa_c'
p1075
I2
sS't_t3_c'
p1076
I1
sS't_fp_c'
p1077
I1
sS't_b^m_t'
p1078
I1
sS't_sv_c'
p1079
I20
sS't_qy_c'
p1080
I57
sS't_fa_t'
p1081
I1
sS't_sd_c'
p1082
I140
sS't_na_t'
p1083
I1
sS't_b_t'
p1084
I34
sS't_aap_am_t'
p1085
I1
sS't_sd_t'
p1086
I3
sS't_fa_c'
p1087
I2
sS't_bh_c'
p1088
I1
sS't_qo_c'
p1089
I22
sS't_b_c'
p1090
I1
sS't_bk_c'
p1091
I1
sS't_qy^d_c'
p1092
I4
sS't_%_c'
p1093
I10
sS't_na_c'
p1094
I4
sS't_fc_t'
p1095
I3
sS't_nn_c'
p1096
I1
sS't_no_c'
p1097
I1
sS't_nn_t'
p1098
I5
sS't_fc_c'
p1099
I4
sS't_bf_c'
p1100
I2
sS't_ng_c'
p1101
I1
sS't_%_t'
p1102
I9
sS't_qw_c'
p1103
I51
sS't_arp_nd_c'
p1104
I1
sS't_^h_c'
p1105
I4
sS't_br_c'
p1106
I1
sS't_qh_c'
p1107
I3
sS't_fo_o_fw_"_by_bc_c'
p1108
I5
stRp1109
sg999
g4
((dp1110
S't_%_t'
p1111
I10
sg23
I12
sS't_ny_t'
p1112
I7
sS't_ar_t'
p1113
I1
sS't_qy^d_c'
p1114
I6
sS't_na_c'
p1115
I8
sS't_aa_t'
p1116
I1
sS't_ba_t'
p1117
I2
sS't_h_c'
p1118
I3
sS't_qw_c'
p1119
I15
sS't_no_c'
p1120
I1
sS't_ba_c'
p1121
I1
sS't_aa_c'
p1122
I3
sS't_nn_c'
p1123
I1
sS't_ng_c'
p1124
I7
sS't_sv_c'
p1125
I28
sS't_qy_c'
p1126
I20
sS't_qw^d_c'
p1127
I1
sS't_sd_c'
p1128
I237
sS't_arp_nd_c'
p1129
I2
sS't_na_t'
p1130
I2
sS't_b_t'
p1131
I7
sS't_^q_c'
p1132
I2
sS't_fo_o_fw_"_by_bc_t'
p1133
I1
sS't_sd_t'
p1134
I2
sS't_%_c'
p1135
I29
sS't_qh_c'
p1136
I2
sS't_qo_c'
p1137
I2
sS't_b_c'
p1138
I2
sS't_^h_c'
p1139
I41
stRp1140
sg278
g4
((dp1141
g931
I22035
sS'c_sv_c'
p1142
I226309
stRp1143
sS't_ba_c'
p1144
g4
((dp1145
S'c_ba_c'
p1146
I1978
sS'c_ba_t'
p1147
I1722
stRp1148
sS't_aa_c'
p1149
g4
((dp1150
g150
I1456
sg48
I2150
stRp1151
sS'c_%_t'
p1152
g4
((dp1153
S't_t1_c'
p1154
I11
sS't_ny_t'
p1155
I132
sS't_ad_c'
p1156
I34
sS't_b^m_c'
p1157
I4
sS't_fp_t'
p1158
I1
sS't_oo_co_cc_c'
p1159
I6
sS't_h_c'
p1160
I117
sS't_ny_c'
p1161
I10
sS't_t3_c'
p1162
I2
sS't_b^m_t'
p1163
I6
sS't_sv_c'
p1164
I1214
sS't_qy_c'
p1165
I186
sS't_bf_c'
p1166
I19
sS't_qy^d_c'
p1167
I50
sS't_b_t'
p1168
I946
sS't_^q_c'
p1169
I11
sS't_bd_c'
p1170
I5
sS't_qy_t'
p1171
I5
sS't_sv_t'
p1172
I1
sS't_^q_t'
p1173
I1
sS't_b_c'
p1174
I53
sS't_no_t'
p1175
I1
sS't_ng_t'
p1176
I2
sS't_na_c'
p1177
I35
sS't_no_c'
p1178
I25
sS't_na_t'
p1179
I13
sS't_bh_t'
p1180
I5
sS't_br_t'
p1181
I7
sS't_qw_c'
p1182
I55
sS't_ar_c'
p1183
I7
sS't_arp_nd_c'
p1184
I11
sS't_^h_c'
p1185
I30
sS't_arp_nd_t'
p1186
I1
sS't_ar_t'
p1187
I5
sS't_qw_t'
p1188
I1
sS't_br_c'
p1189
I23
sS't_fo_o_fw_"_by_bc_c'
p1190
I5
sS't_fo_o_fw_"_by_bc_t'
p1191
I7
sS't_aa_t'
p1192
I277
sS't_ba_t'
p1193
I12
sS't_ba_c'
p1194
I78
sg1149
I134
sS't_qw^d_c'
p1195
I6
sS't_ng_c'
p1196
I16
sS't_qrr_c'
p1197
I1
sS't_sd_c'
p1198
I3285
sS't_aap_am_t'
p1199
I1
sS't_sd_t'
p1200
I7
sS't_fa_c'
p1201
I1
sS't_bh_c'
p1202
I31
sS't_aap_am_c'
p1203
I3
sS't_qo_c'
p1204
I15
sS't_bk_c'
p1205
I10
sS't_bf_t'
p1206
I1
sS't_^2_c'
p1207
I20
sS't_fc_t'
p1208
I10
sS't_nn_c'
p1209
I10
sS't_bk_t'
p1210
I12
sS't_nn_t'
p1211
I62
sS't_fc_c'
p1212
I25
sS't_^2_t'
p1213
I1
sS't_^h_t'
p1214
I3
sS't_%_t'
p1215
I267
sS't_%_c'
p1216
I470
sS't_qh_c'
p1217
I40
sS't_ft_c'
p1218
I2
stRp1219
sS't_qw^d_c'
p1220
g4
((dp1221
S'c_qw^d_t'
p1222
I3
sS'c_qw^d_c'
p1223
I69
stRp1224
sg802
g4
((dp1225
S'c_qrr_t'
p1226
I2
sg692
I187
stRp1227
sg544
g4
((dp1228
S't_qy_c'
p1229
I3
stRp1230
sg1089
g4
((dp1231
g436
I530
sS'c_qo_t'
p1232
I5
stRp1233
sg552
g4
((dp1234
g337
I410
sg572
I94
stRp1235
sg554
g4
((dp1236
g145
I457
sg160
I117
stRp1237
sS'c_%_c'
p1238
g4
((dp1239
S'c_%_c'
p1240
I7384
sS'c_%_t'
p1241
I4694
stRp1242
sS't_^2_t'
p1243
g4
((dp1244
S't_sv_c'
p1245
I1
sS't_ny_t'
p1246
I2
sS't_bk_c'
p1247
I1
sS't_bh_c'
p1248
I3
sS't_^2_c'
p1249
I2
sS't_aa_t'
p1250
I7
sS't_aa_c'
p1251
I2
sS't_bf_c'
p1252
I1
sS't_bh_t'
p1253
I1
sS't_%_t'
p1254
I9
sS't_sd_c'
p1255
I7
sS't_b_t'
p1256
I41
sS't_^h_c'
p1257
I1
sS't_arp_nd_t'
p1258
I1
sS't_sd_t'
p1259
I1
sS't_%_c'
p1260
I1
sS't_aap_am_c'
p1261
I1
sS't_b_c'
p1262
I1
stRp1263
sS'c_ad_t'
p1264
g4
((dp1265
S't_t1_c'
p1266
I1
sS't_ny_t'
p1267
I9
sS't_ad_c'
p1268
I92
sS't_b^m_c'
p1269
I3
sS't_fp_t'
p1270
I3
sS't_t3_t'
p1271
I2
sS't_aa_t'
p1272
I12
sS't_^h_c'
p1273
I2
sS't_oo_co_cc_c'
p1274
I5
sS't_h_c'
p1275
I1
sS't_ad_t'
p1276
I1
sS't_ny_c'
p1277
I1
sS't_ba_c'
p1278
I4
sS't_aa_c'
p1279
I10
sS't_t3_c'
p1280
I6
sS't_fp_c'
p1281
I1
sS't_b^m_t'
p1282
I2
sS't_sv_c'
p1283
I70
sS't_qy_c'
p1284
I34
sS't_fa_t'
p1285
I3
sS't_sd_c'
p1286
I154
sS't_b_t'
p1287
I104
sS't_^q_c'
p1288
I1
sS't_fa_c'
p1289
I3
sS't_bd_c'
p1290
I1
sS't_qy_t'
p1291
I1
sS't_bh_c'
p1292
I3
sS't_qo_c'
p1293
I4
sS't_b_c'
p1294
I7
sS't_bk_c'
p1295
I1
sS't_qy^d_c'
p1296
I5
sS't_^2_c'
p1297
I1
sS't_fc_t'
p1298
I5
sS't_bk_t'
p1299
I1
sS't_no_c'
p1300
I2
sS't_nn_t'
p1301
I4
sS't_fc_c'
p1302
I15
sS't_bf_c'
p1303
I1
sS't_ng_c'
p1304
I1
sS't_%_t'
p1305
I18
sS't_qw_c'
p1306
I18
sS't_arp_nd_c'
p1307
I1
sS't_fo_o_fw_"_by_bc_t'
p1308
I1
sS't_ft_t'
p1309
I1
sS't_ar_t'
p1310
I1
sS't_%_c'
p1311
I25
sS't_qh_c'
p1312
I7
sS't_ft_c'
p1313
I4
sS't_fo_o_fw_"_by_bc_c'
p1314
I1
stRp1315
sg158
g4
((dp1316
S'c_h_t'
p1317
I1024
sS'c_h_c'
p1318
I1776
stRp1319
sS't_bk_t'
p1320
g4
((dp1321
S't_t1_c'
p1322
I1
sS't_ny_t'
p1323
I4
sS't_ad_c'
p1324
I9
sS't_b^m_c'
p1325
I1
sS't_aa_t'
p1326
I12
sS't_ba_t'
p1327
I6
sS't_h_c'
p1328
I3
sS't_ny_c'
p1329
I3
sS't_ba_c'
p1330
I31
sS't_aa_c'
p1331
I3
sS't_t3_c'
p1332
I1
sS't_b^m_t'
p1333
I2
sS't_sv_c'
p1334
I29
sS't_qy_c'
p1335
I41
sS't_qw^d_c'
p1336
I1
sS't_sd_c'
p1337
I121
sS't_b_t'
p1338
I152
sS't_sd_t'
p1339
I2
sS't_bf_c'
p1340
I8
sS't_fa_c'
p1341
I1
sS't_qy^d_c'
p1342
I20
sS't_qo_c'
p1343
I3
sS't_b_c'
p1344
I18
sS't_%_t'
p1345
I17
sS't_bk_c'
p1346
I16
sS't_bh_c'
p1347
I5
sS't_na_c'
p1348
I2
sS't_nn_c'
p1349
I1
sS't_bk_t'
p1350
I54
sS't_nn_t'
p1351
I2
sS't_fc_c'
p1352
I4
sS't_na_t'
p1353
I1
sg1243
I1
sS't_bh_t'
p1354
I2
sS't_br_t'
p1355
I1
sS't_qw_c'
p1356
I25
sS't_ar_c'
p1357
I1
sS't_arp_nd_c'
p1358
I1
sS't_^h_c'
p1359
I3
sS't_%_c'
p1360
I22
sS't_qh_c'
p1361
I1
sS't_ft_c'
p1362
I1
sS't_^h_t'
p1363
I1
stRp1364
sS'c_b_t'
p1365
g4
((dp1366
S't_ny_t'
p1367
I9
sS't_ad_c'
p1368
I7
sS't_fo_o_fw_"_by_bc_t'
p1369
I1
sS't_b^m_c'
p1370
I4
sS't_aa_t'
p1371
I57
sS't_ba_t'
p1372
I13
sS't_oo_co_cc_c'
p1373
I1
sS't_h_c'
p1374
I9
sS't_ny_c'
p1375
I1
sS't_%_c'
p1376
I69
sS't_ba_c'
p1377
I107
sS't_aa_c'
p1378
I53
sS't_b^m_t'
p1379
I4
sS't_sv_c'
p1380
I171
sS't_qy_c'
p1381
I59
sS't_qw^d_c'
p1382
I1
sS't_sd_c'
p1383
I384
sS't_b_t'
p1384
I646
sS't_bf_c'
p1385
I27
sS't_ng_c'
p1386
I1
sS't_qy_t'
p1387
I1
sS't_qy^d_c'
p1388
I21
sS't_aap_am_c'
p1389
I1
sS't_b_c'
p1390
I92
sS't_bk_c'
p1391
I2
sS't_bh_c'
p1392
I14
sS't_^2_c'
p1393
I17
sS't_na_c'
p1394
I2
sS't_fc_t'
p1395
I3
sS't_nn_c'
p1396
I2
sS't_bk_t'
p1397
I6
sS't_no_c'
p1398
I3
sS't_nn_t'
p1399
I9
sS't_fc_c'
p1400
I14
sS't_na_t'
p1401
I2
sS't_^2_t'
p1402
I1
sS't_bh_t'
p1403
I1
sS't_%_t'
p1404
I50
sS't_qw_c'
p1405
I35
sS't_ar_c'
p1406
I2
sS't_^h_c'
p1407
I3
sS't_bf_t'
p1408
I1
sS't_br_c'
p1409
I1
sS't_qh_c'
p1410
I2
sS't_ft_c'
p1411
I1
sS't_fo_o_fw_"_by_bc_c'
p1412
I3
stRp1413
sS't_ft_t'
p1414
g4
((dp1415
S't_sv_c'
p1416
I1
sS't_fc_c'
p1417
I1
sS't_b_t'
p1418
I1
sS't_fc_t'
p1419
I6
sS't_sd_c'
p1420
I3
stRp1421
sS's'
g4
((dp1422
S't_t1_c'
p1423
I1
sS't_ny_t'
p1424
I65
sS't_ad_c'
p1425
I35
sg1063
I351
sS't_b^m_c'
p1426
I3
sg108
I66
sS't_bh_t'
p1427
I1
sS't_aa_t'
p1428
I37
sS't_ba_t'
p1429
I5
sS't_oo_co_cc_c'
p1430
I3
sS't_h_c'
p1431
I11
sS't_ad_t'
p1432
I1
sS't_ny_c'
p1433
I17
sS't_%_c'
p1434
I35
sS't_ba_c'
p1435
I15
sS't_aa_c'
p1436
I19
sg228
I34
sS't_b^m_t'
p1437
I16
sS't_sv_c'
p1438
I84
sS't_qy_c'
p1439
I128
sS't_qw^d_c'
p1440
I2
sS't_sd_c'
p1441
I328
sS't_na_t'
p1442
I7
sS't_b_t'
p1443
I173
sS't_sd_t'
p1444
I2
sS't_fa_c'
p1445
I1
sS't_ng_c'
p1446
I17
sS't_qy_t'
p1447
I4
sS't_ng_t'
p1448
I1
sS't_aap_am_c'
p1449
I1
sS't_qo_c'
p1450
I54
sS't_b_c'
p1451
I26
sS't_bd_c'
p1452
I1
sS't_br_t'
p1453
I3
sS't_bk_c'
p1454
I1
sS't_bh_c'
p1455
I7
sS't_^2_c'
p1456
I4
sS't_na_c'
p1457
I37
sS't_^g_c'
p1458
I1
sS't_nn_c'
p1459
I7
sS't_bk_t'
p1460
I3
sS't_qy^d_c'
p1461
I14
sS't_no_c'
p1462
I8
sS't_nn_t'
p1463
I22
sS't_fc_c'
p1464
I1
sS't_bf_c'
p1465
I2
sS't_^2_t'
p1466
I1
sS't_fo_o_fw_"_by_bc_c'
p1467
I147
sS't_qy^d_t'
p1468
I1
sS't_%_t'
p1469
I20
sS't_qw_c'
p1470
I92
sS't_ar_c'
p1471
I1
sS't_arp_nd_c'
p1472
I8
sg777
I17
sS't_br_c'
p1473
I1
sS't_ft_c'
p1474
I1
sS't_^h_t'
p1475
I1
stRp1476
sg1060
g4
((dp1477
S'c_ft_c'
p1478
I30
sS'c_ft_t'
p1479
I25
stRp1480
sS'c_b_c'
p1481
g4
((dp1482
S'c_b_c'
p1483
I163
sS'c_b_t'
p1484
I237
stRp1485
sg500
g4
((dp1486
S't_t1_c'
p1487
I1
sS't_ny_t'
p1488
I288
sS't_ad_c'
p1489
I5
sS't_fo_o_fw_"_by_bc_t'
p1490
I1
sS't_b^m_c'
p1491
I1
sS't_aa_t'
p1492
I40
sS't_ba_t'
p1493
I2
sS't_oo_co_cc_c'
p1494
I1
sS't_h_c'
p1495
I5
sS't_ny_c'
p1496
I27
sS't_%_c'
p1497
I90
sS't_ba_c'
p1498
I13
sS't_aa_c'
p1499
I23
sS't_b^m_t'
p1500
I8
sS't_sv_c'
p1501
I140
sS't_qy_c'
p1502
I53
sS't_qw^d_c'
p1503
I2
sS't_sd_c'
p1504
I1177
sS't_na_t'
p1505
I22
sS't_b_t'
p1506
I221
sS't_^q_c'
p1507
I2
sS't_sd_t'
p1508
I22
sS't_ng_c'
p1509
I9
sS't_qy_t'
p1510
I2
sS't_qy^d_c'
p1511
I6
sS't_aap_am_c'
p1512
I1
sS't_qo_c'
p1513
I4
sS't_b_c'
p1514
I22
sS't_%_t'
p1515
I43
sS't_bk_c'
p1516
I5
sS't_bh_c'
p1517
I16
sS't_^2_c'
p1518
I4
sS't_na_c'
p1519
I25
sS't_fc_t'
p1520
I1
sS't_nn_c'
p1521
I4
sS't_bk_t'
p1522
I5
sS't_no_c'
p1523
I2
sS't_nn_t'
p1524
I26
sS't_fc_c'
p1525
I3
sS't_bf_c'
p1526
I2
sS't_bh_t'
p1527
I2
sS't_br_t'
p1528
I1
sS't_qw_c'
p1529
I13
sS't_ar_c'
p1530
I2
sS't_arp_nd_c'
p1531
I4
sS't_^h_c'
p1532
I3
sS't_ar_t'
p1533
I5
sS't_br_c'
p1534
I1
sS't_qh_c'
p1535
I2
sS't_fo_o_fw_"_by_bc_c'
p1536
I2
stRp1537
sS't_ad_c'
p1538
g4
((dp1539
g1264
I75
sS'c_ad_c'
p1540
I584
stRp1541
sS'c_ba_t'
p1542
g4
((dp1543
S't_t1_c'
p1544
I1
sS't_ny_t'
p1545
I12
sS't_ad_c'
p1546
I9
sS't_fo_o_fw_"_by_bc_t'
p1547
I4
sS't_b^m_c'
p1548
I7
sS't_aa_t'
p1549
I97
sS't_ba_t'
p1550
I58
sS't_oo_co_cc_c'
p1551
I8
sS't_h_c'
p1552
I10
sS't_ny_c'
p1553
I3
sS't_%_c'
p1554
I113
sS't_ba_c'
p1555
I454
sS't_aa_c'
p1556
I61
sS't_t3_c'
p1557
I1
sS't_fp_c'
p1558
I1
sS't_b^m_t'
p1559
I7
sS't_sv_c'
p1560
I359
sS't_qy_c'
p1561
I151
sS't_qw^d_c'
p1562
I3
sS't_ng_c'
p1563
I2
sS't_sd_c'
p1564
I681
sS't_b_t'
p1565
I1079
sS't_bf_c'
p1566
I36
sS't_fa_c'
p1567
I1
sS't_bd_c'
p1568
I3
sS't_qy_t'
p1569
I1
sS't_qy^d_c'
p1570
I51
sS't_qo_c'
p1571
I17
sS't_b_c'
p1572
I54
sS't_%_t'
p1573
I122
sS't_bk_c'
p1574
I2
sS't_bh_c'
p1575
I15
sS't_^2_c'
p1576
I23
sS't_na_c'
p1577
I10
sS't_fc_t'
p1578
I7
sS't_^g_c'
p1579
I1
sS't_nn_c'
p1580
I1
sS't_bk_t'
p1581
I4
sS't_no_c'
p1582
I5
sS't_nn_t'
p1583
I14
sS't_fc_c'
p1584
I26
sS't_na_t'
p1585
I1
sS't_^2_t'
p1586
I3
sS't_fo_o_fw_"_by_bc_c'
p1587
I7
sS't_bh_t'
p1588
I8
sS't_br_t'
p1589
I1
sS't_qw_c'
p1590
I80
sS't_ar_c'
p1591
I3
sS't_arp_nd_c'
p1592
I3
sS't_^h_c'
p1593
I14
sS't_bf_t'
p1594
I1
sS't_ar_t'
p1595
I5
sS't_qw_t'
p1596
I2
sS't_br_c'
p1597
I5
sS't_qh_c'
p1598
I15
sS't_ft_c'
p1599
I1
sS't_^h_t'
p1600
I2
stRp1601
sg1223
g4
((dp1602
S'c_qw^d_t'
p1603
I69
sS'c_qw^d_c'
p1604
I464
stRp1605
sg1146
g4
((dp1606
S'c_ba_c'
p1607
I1747
sg1542
I1978
stRp1608
sg792
g4
((dp1609
S't_sv_c'
p1610
I3
sS't_ad_c'
p1611
I2
sS't_sd_c'
p1612
I2
sS't_oo_co_cc_c'
p1613
I1
sS't_ad_t'
p1614
I2
sS't_no_c'
p1615
I1
sS't_%_c'
p1616
I1
sS't_nn_t'
p1617
I1
sS't_aa_c'
p1618
I1
sS't_fc_c'
p1619
I1
stRp1620
sS't_ny_c'
p1621
g4
((dp1622
S'c_ny_t'
p1623
I327
sS'c_ny_c'
p1624
I31
stRp1625
sg1603
g4
((dp1626
S't_%_t'
p1627
I1
sS't_ny_t'
p1628
I1
sS't_ad_c'
p1629
I3
sS't_bk_c'
p1630
I4
sS't_bh_c'
p1631
I1
sS't_%_c'
p1632
I3
sS't_bk_t'
p1633
I5
sS't_no_c'
p1634
I1
sS't_ba_c'
p1635
I4
sS't_aa_c'
p1636
I2
sS't_fc_c'
p1637
I1
sS't_sv_c'
p1638
I5
sS't_qy_c'
p1639
I4
sS't_qrr_c'
p1640
I2
sS't_sd_c'
p1641
I15
sS't_b_t'
p1642
I16
sS't_qy^d_c'
p1643
I2
stRp1644
sg512
g4
((dp1645
g906
I3929
sS'c_qy_t'
p1646
I178
stRp1647
sg1025
g4
((dp1648
S't_t1_c'
p1649
I2
sS't_ny_t'
p1650
I192
sS't_ad_c'
p1651
I76
sS't_b^m_c'
p1652
I72
sS't_t3_t'
p1653
I1
sS't_oo_co_cc_c'
p1654
I15
sS't_h_c'
p1655
I60
sS't_ad_t'
p1656
I1
sg1621
I33
sS't_t3_c'
p1657
I10
sS't_fp_c'
p1658
I3
sS't_b^m_t'
p1659
I41
sS't_sv_c'
p1660
I2336
sS't_qy_c'
p1661
I840
sS't_bd_t'
p1662
I1
sS't_bf_c'
p1663
I297
sS't_b_t'
p1664
I15017
sS't_^q_c'
p1665
I15
sS't_bh_t'
p1666
I59
sS't_qy_t'
p1667
I5
sg474
I7
sS't_b_c'
p1668
I735
sS't_bd_c'
p1669
I13
sS't_qy^d_c'
p1670
I251
sS't_bf_t'
p1671
I5
sS't_no_c'
p1672
I23
sS't_na_t'
p1673
I14
sS't_qy^d_t'
p1674
I5
sS't_br_t'
p1675
I2
sS't_qw_c'
p1676
I374
sS't_ar_c'
p1677
I24
sS't_arp_nd_c'
p1678
I14
sS't_^h_c'
p1679
I58
sg847
I5
sS't_ar_t'
p1680
I21
sS't_qw_t'
p1681
I7
sS't_br_c'
p1682
I33
sS't_^h_t'
p1683
I6
sS't_fo_o_fw_"_by_bc_t'
p1684
I8
sS't_aa_t'
p1685
I1540
sS't_ba_t'
p1686
I306
sg1144
I1471
sS't_aa_c'
p1687
I784
sg1220
I10
sS't_ng_c'
p1688
I29
sS't_qrr_c'
p1689
I1
sS't_sd_c'
p1690
I4584
sS't_aap_am_t'
p1691
I3
sS't_sd_t'
p1692
I19
sS't_fa_c'
p1693
I4
sS't_bh_c'
p1694
I176
sS't_aap_am_c'
p1695
I14
sS't_qo_c'
p1696
I61
sS't_bk_c'
p1697
I63
sS't_na_c'
p1698
I59
sS't_^2_c'
p1699
I282
sS't_fc_t'
p1700
I35
sS't_^g_c'
p1701
I2
sS't_nn_c'
p1702
I19
sg1320
I52
sS't_fa_t'
p1703
I1
sS't_nn_t'
p1704
I103
sS't_fc_c'
p1705
I86
sS't_^2_t'
p1706
I40
sS't_fo_o_fw_"_by_bc_c'
p1707
I32
sS't_%_t'
p1708
I649
sS't_ft_t'
p1709
I1
sS't_%_c'
p1710
I887
sS't_qh_c'
p1711
I52
sS't_ft_c'
p1712
I8
stRp1713
sS'c_fa_c'
p1714
g4
((dp1715
S'c_fa_t'
p1716
I35
sS'c_fa_c'
p1717
I79
stRp1718
sg767
g4
((dp1719
S'c_ar_t'
p1720
I86
sS'c_ar_c'
p1721
I313
stRp1722
sg516
g4
((dp1723
S't_sv_c'
p1724
I4
sS't_ny_t'
p1725
I1
sS't_bk_c'
p1726
I2
sS't_qy^d_c'
p1727
I1
sS't_ba_c'
p1728
I1
sS't_bk_t'
p1729
I4
sS't_ny_c'
p1730
I2
sS't_nn_t'
p1731
I1
sS't_aa_c'
p1732
I1
sS't_fc_c'
p1733
I1
sS't_na_t'
p1734
I1
sS't_%_t'
p1735
I5
sS't_qy_c'
p1736
I6
sS't_qw_c'
p1737
I1
sS't_sd_c'
p1738
I14
sS't_b_t'
p1739
I16
sS't_fo_o_fw_"_by_bc_t'
p1740
I1
sS't_qw_t'
p1741
I1
sS't_qy_t'
p1742
I1
sS't_%_c'
p1743
I1
sS't_b_c'
p1744
I1
stRp1745
sg1720
g4
((dp1746
S't_%_t'
p1747
I6
sS't_ny_t'
p1748
I3
sS't_aa_t'
p1749
I2
sS't_h_c'
p1750
I2
sS't_aa_c'
p1751
I2
sS't_t3_c'
p1752
I1
sS't_sv_c'
p1753
I28
sS't_qy_c'
p1754
I2
sS't_fa_t'
p1755
I1
sS't_sd_c'
p1756
I60
sS't_ar_c'
p1757
I8
sS't_b_t'
p1758
I4
sS't_aap_am_t'
p1759
I1
sS't_ar_t'
p1760
I6
sS't_%_c'
p1761
I9
sS't_fo_o_fw_"_by_bc_c'
p1762
I1
stRp1763
sg1716
g4
((dp1764
S't_sv_c'
p1765
I3
sS't_ny_t'
p1766
I4
sg1538
I5
sS't_bk_c'
p1767
I1
sS't_bh_c'
p1768
I2
sS't_no_c'
p1769
I1
sS't_fc_c'
p1770
I4
sS't_t3_c'
p1771
I1
sS't_b^m_t'
p1772
I1
sS't_%_t'
p1773
I3
sS't_qy_c'
p1774
I3
sS't_qw_c'
p1775
I1
sS't_sd_c'
p1776
I25
sS't_b_t'
p1777
I4
sS't_sd_t'
p1778
I1
sS't_fa_c'
p1779
I1
sS't_%_c'
p1780
I2
sS't_ft_c'
p1781
I1
stRp1782
sg1034
g4
((dp1783
g1481
I237
sg1365
I1689
stRp1784
sg1478
g4
((dp1785
S'c_ft_c'
p1786
I42
sS'c_ft_t'
p1787
I30
stRp1788
sg1035
g4
((dp1789
S't_ny_t'
p1790
I1
sS't_b_t'
p1791
I1
sS't_sd_c'
p1792
I2
sS't_no_c'
p1793
I1
stRp1794
sS'c_fc_t'
p1795
g4
((dp1796
S't_%_t'
p1797
I16
sS't_ad_c'
p1798
I4
sS't_bh_c'
p1799
I2
sS't_na_c'
p1800
I2
sS't_fc_t'
p1801
I611
sS't_aa_t'
p1802
I2
sS't_ny_c'
p1803
I1
sS't_nn_t'
p1804
I2
sS't_aa_c'
p1805
I1
sS't_fc_c'
p1806
I638
sS't_sv_c'
p1807
I5
sS't_qy_c'
p1808
I6
sS't_bd_t'
p1809
I1
sg761
I4
sS't_sd_c'
p1810
I12
sS't_b_t'
p1811
I8
sS't_fo_o_fw_"_by_bc_t'
p1812
I1
sg1414
I3
sS't_%_c'
p1813
I20
sS't_ft_c'
p1814
I14
sS't_b_c'
p1815
I1
stRp1816
sg1448
g4
((dp1817
S't_sv_c'
p1818
I1
sS't_b_t'
p1819
I1
sS't_sd_c'
p1820
I2
stRp1821
sg105
g4
((dp1822
S'c_b^m_c'
p1823
I148
sS'c_b^m_t'
p1824
I157
stRp1825
sg522
g4
((dp1826
S'c_na_t'
p1827
I130
sS'c_na_c'
p1828
I462
stRp1829
sS'c_fo_o_fw_"_by_bc_c'
p1830
g4
((dp1831
S'c_fo_o_fw_"_by_bc_t'
p1832
I180
sS'c_fo_o_fw_"_by_bc_c'
p1833
I414
stRp1834
sS'c_fc_c'
p1835
g4
((dp1836
S'c_fc_c'
p1837
I3843
sg1795
I1083
stRp1838
sg955
g4
((dp1839
S'c_no_t'
p1840
I9
sg732
I231
stRp1841
sg1787
g4
((dp1842
S't_sv_c'
p1843
I4
sS't_sd_c'
p1844
I7
sS't_b_t'
p1845
I3
sS't_fc_t'
p1846
I20
sS't_ft_t'
p1847
I2
sS't_fa_c'
p1848
I2
sS't_%_c'
p1849
I2
sS't_aa_c'
p1850
I1
sS't_fc_c'
p1851
I10
sS't_ft_c'
p1852
I2
sS't_t3_c'
p1853
I1
stRp1854
sS'c_fo_o_fw_"_by_bc_t'
p1855
g4
((dp1856
S't_ny_t'
p1857
I6
sS't_ad_c'
p1858
I5
sS't_b^m_c'
p1859
I1
sS't_aa_t'
p1860
I10
sS't_ba_t'
p1861
I1
sS't_oo_co_cc_c'
p1862
I1
sS't_ny_c'
p1863
I2
sS't_ba_c'
p1864
I4
sS't_aa_c'
p1865
I5
sS't_fp_c'
p1866
I4
sS't_sv_c'
p1867
I40
sS't_qy_c'
p1868
I22
sS't_bf_c'
p1869
I1
sS't_sd_c'
p1870
I114
sS't_b_t'
p1871
I35
sS't_sd_t'
p1872
I1
sS't_qo_c'
p1873
I11
sS't_b_c'
p1874
I5
sS't_^h_c'
p1875
I6
sS't_bk_c'
p1876
I1
sS't_qy^d_c'
p1877
I2
sS't_na_c'
p1878
I2
sS't_fc_t'
p1879
I1
sS't_no_c'
p1880
I1
sS't_nn_t'
p1881
I1
sS't_fc_c'
p1882
I5
sS't_na_t'
p1883
I1
sS't_fo_o_fw_"_by_bc_c'
p1884
I13
sS't_%_t'
p1885
I7
sS't_qw_c'
p1886
I15
sS't_arp_nd_c'
p1887
I3
sS't_fo_o_fw_"_by_bc_t'
p1888
I1
sS't_%_c'
p1889
I14
sS't_qh_c'
p1890
I2
sS't_^h_t'
p1891
I1
stRp1892
sS't_na_t'
p1893
g4
((dp1894
S't_%_t'
p1895
I6
sS't_ny_t'
p1896
I22
sS't_ad_c'
p1897
I1
sS't_fp_t'
p1898
I1
sS't_^2_c'
p1899
I1
sS't_na_c'
p1900
I3
sS't_aa_t'
p1901
I6
sS't_ba_c'
p1902
I1
sS't_aa_c'
p1903
I2
sS't_na_t'
p1904
I14
sS't_sv_c'
p1905
I14
sS't_qy_c'
p1906
I2
sS't_qw_c'
p1907
I4
sS't_sd_c'
p1908
I59
sS't_b_t'
p1909
I22
sS't_^h_c'
p1910
I1
sS't_sd_t'
p1911
I1
sS't_br_c'
p1912
I1
sS't_bd_c'
p1913
I1
sS't_%_c'
p1914
I5
sS't_qh_c'
p1915
I1
sS't_ft_c'
p1916
I1
sS't_b_c'
p1917
I1
stRp1918
sg106
g4
((dp1919
S't_%_t'
p1920
I9
sS't_ny_t'
p1921
I5
sS't_%_c'
p1922
I7
sS't_bk_c'
p1923
I5
sS't_fo_o_fw_"_by_bc_t'
p1924
I1
sS't_b^m_c'
p1925
I4
sS't_^2_c'
p1926
I1
sS't_na_c'
p1927
I1
sS't_aa_t'
p1928
I15
sS't_ba_t'
p1929
I3
sS't_oo_co_cc_c'
p1930
I1
sS't_nn_t'
p1931
I2
sS't_^g_t'
p1932
I1
sS't_ba_c'
p1933
I17
sS't_aa_c'
p1934
I5
sS't_fc_c'
p1935
I4
sS't_bf_c'
p1936
I1
sS't_b^m_t'
p1937
I1
sS't_sv_c'
p1938
I17
sS't_qy_c'
p1939
I12
sS't_qw_c'
p1940
I14
sS't_sd_c'
p1941
I59
sS't_bk_t'
p1942
I15
sS't_b_t'
p1943
I86
sS't_^h_c'
p1944
I2
sS't_qy^d_c'
p1945
I2
sS't_qo_c'
p1946
I2
sS't_b_c'
p1947
I6
stRp1948
sg972
g4
((dp1949
S'c_ng_t'
p1950
I47
sS'c_ng_c'
p1951
I216
stRp1952
sg526
g4
((dp1953
S't_%_t'
p1954
I1
sS't_ny_t'
p1955
I7
sS't_bk_c'
p1956
I2
sS't_%_c'
p1957
I1
sS't_na_c'
p1958
I2
sS't_aa_t'
p1959
I6
sS't_ba_t'
p1960
I1
sS't_oo_co_cc_c'
p1961
I1
sS't_ny_c'
p1962
I2
sS't_no_c'
p1963
I1
sS't_ba_c'
p1964
I3
sS't_aa_c'
p1965
I3
sS't_nn_c'
p1966
I3
sS't_sv_c'
p1967
I2
sS't_qy_c'
p1968
I3
sS't_qw_c'
p1969
I2
sS't_sd_c'
p1970
I15
sS't_bk_t'
p1971
I1
sS't_b_t'
p1972
I22
sS't_nn_t'
p1973
I4
sS't_arp_nd_c'
p1974
I1
sS't_br_c'
p1975
I2
sS't_b_c'
p1976
I3
stRp1977
sg231
g4
((dp1978
S'c_fp_t'
p1979
I65
sS'c_fp_c'
p1980
I99
stRp1981
sS'c_nn_c'
p1982
g4
((dp1983
S'c_nn_t'
p1984
I24
sS'c_nn_c'
p1985
I8
stRp1986
sg1540
g4
((dp1987
S'c_ad_t'
p1988
I584
sS'c_ad_c'
p1989
I3886
stRp1990
sS'c_nn_t'
p1991
g4
((dp1992
S't_sv_c'
p1993
I8
sS't_ny_t'
p1994
I2
sS't_bk_c'
p1995
I1
sS't_bh_c'
p1996
I1
sS't_na_c'
p1997
I1
sS't_fc_t'
p1998
I1
sS't_nn_c'
p1999
I2
sS't_ny_c'
p2000
I1
sS't_nn_t'
p2001
I12
sS't_ng_c'
p2002
I4
sS't_%_t'
p2003
I6
sS't_qy_c'
p2004
I1
sS't_sd_c'
p2005
I138
sS't_b_t'
p2006
I1
sS't_^h_c'
p2007
I2
sS't_bd_c'
p2008
I1
sS't_%_c'
p2009
I7
sS't_qh_c'
p2010
I1
sS't_b_c'
p2011
I1
stRp2012
sg1979
g4
((dp2013
S't_ny_t'
p2014
I4
sS't_ad_c'
p2015
I1
sS't_bk_c'
p2016
I2
sS't_bh_c'
p2017
I1
sS't_fp_t'
p2018
I5
sS't_br_c'
p2019
I1
sS't_aa_t'
p2020
I3
sS't_ba_t'
p2021
I1
sS't_nn_t'
p2022
I2
sS't_qw_c'
p2023
I6
sS't_%_c'
p2024
I1
sS't_ba_c'
p2025
I1
sS't_fc_c'
p2026
I1
sS't_bf_c'
p2027
I1
sS't_fp_c'
p2028
I30
sS't_b^m_t'
p2029
I1
sS't_sv_c'
p2030
I4
sS't_qy_c'
p2031
I11
sS't_na_t'
p2032
I1
sS't_sd_c'
p2033
I13
sS't_b_t'
p2034
I9
sS't_^h_c'
p2035
I1
sS't_ar_t'
p2036
I1
sS't_nn_c'
p2037
I1
sS't_qy^d_c'
p2038
I1
sS't_b_c'
p2039
I4
stRp2040
sg1189
g4
((dp2041
S'c_br_t'
p2042
I80
sS'c_br_c'
p2043
I85
stRp2044
sg1467
g4
((dp2045
g1855
I164
sg1830
I180
stRp2046
sg672
g4
((dp2047
S'c_qy^d_t'
p2048
I996
sS'c_qy^d_c'
p2049
I5904
stRp2050
sg225
g4
((dp2051
S'c_t3_c'
p2052
I187
sg28
I69
stRp2053
sg2048
g4
((dp2054
S't_t1_c'
p2055
I1
sS't_ny_t'
p2056
I12
sS't_ad_c'
p2057
I2
sS't_b^m_c'
p2058
I4
sS't_aa_t'
p2059
I18
sS't_ba_t'
p2060
I11
sS't_oo_co_cc_c'
p2061
I1
sS't_h_c'
p2062
I3
sS't_ny_c'
p2063
I3
sS't_ba_c'
p2064
I52
sS't_aa_c'
p2065
I6
sS't_t3_c'
p2066
I2
sS't_b^m_t'
p2067
I13
sS't_sv_c'
p2068
I63
sS't_qy_c'
p2069
I69
sS't_qw^d_c'
p2070
I1
sS't_qrr_c'
p2071
I12
sS't_sd_c'
p2072
I184
sS't_b_t'
p2073
I260
sS't_bd_c'
p2074
I1
sS't_qy^d_c'
p2075
I67
sS't_b_c'
p2076
I14
sS't_%_t'
p2077
I62
sS't_bk_c'
p2078
I29
sS't_bh_c'
p2079
I10
sS't_^2_c'
p2080
I3
sS't_^g_c'
p2081
I2
sS't_nn_c'
p2082
I3
sS't_bk_t'
p2083
I36
sS't_nn_t'
p2084
I4
sS't_^g_t'
p2085
I3
sS't_fc_c'
p2086
I2
sS't_bf_c'
p2087
I10
sS't_^2_t'
p2088
I2
sS't_bh_t'
p2089
I3
sS't_br_t'
p2090
I1
sS't_qw_c'
p2091
I28
sS't_arp_nd_c'
p2092
I2
sS't_^h_c'
p2093
I2
sS't_%_c'
p2094
I32
sS't_qy^d_t'
p2095
I1
stRp2096
sg1686
g4
((dp2097
S't_ny_t'
p2098
I4
sS't_ad_c'
p2099
I5
sS't_b^m_c'
p2100
I3
sS't_bh_t'
p2101
I4
sS't_aa_t'
p2102
I20
sS't_ba_t'
p2103
I33
sS't_h_c'
p2104
I5
sS't_%_c'
p2105
I25
sS't_ba_c'
p2106
I71
sS't_aa_c'
p2107
I24
sS't_sv_c'
p2108
I63
sS't_qy_c'
p2109
I33
sS't_qw^d_c'
p2110
I1
sS't_sd_c'
p2111
I83
sS't_b_t'
p2112
I220
sS't_sd_t'
p2113
I2
sS't_bd_c'
p2114
I2
sS't_bh_c'
p2115
I13
sS't_aap_am_c'
p2116
I1
sS't_b_c'
p2117
I14
sS't_bk_c'
p2118
I1
sS't_qy^d_c'
p2119
I7
sS't_^2_c'
p2120
I3
sS't_na_c'
p2121
I2
sS't_fc_t'
p2122
I2
sS't_nn_c'
p2123
I3
sS't_bk_t'
p2124
I2
sS't_fc_c'
p2125
I4
sS't_bf_c'
p2126
I9
sS't_ng_c'
p2127
I1
sS't_%_t'
p2128
I22
sS't_qw_c'
p2129
I13
sS't_^h_c'
p2130
I2
sS't_br_c'
p2131
I1
sS't_qh_c'
p2132
I2
sS't_^h_t'
p2133
I1
stRp2134
sS't_qy^d_t'
p2135
g4
((dp2136
S't_%_t'
p2137
I1
sS't_qy_c'
p2138
I2
sS't_qw_c'
p2139
I1
sS't_sd_c'
p2140
I3
sS't_bk_c'
p2141
I1
sS't_b^m_c'
p2142
I2
sS't_b_t'
p2143
I7
sS't_bk_t'
p2144
I1
sS't_qy^d_c'
p2145
I1
sS't_ar_c'
p2146
I2
stRp2147
sS'c_qh_c'
p2148
g4
((dp2149
S'c_qh_c'
p2150
I4002
sS'c_qh_t'
p2151
I488
stRp2152
sg698
g4
((dp2153
S'c_bf_c'
p2154
I3758
sS'c_bf_t'
p2155
I730
stRp2156
sg1285
g4
((dp2157
S't_sv_c'
p2158
I1
sS't_bh_c'
p2159
I1
sS't_ny_t'
p2160
I1
sS't_fo_o_fw_"_by_bc_t'
p2161
I1
sS't_sd_c'
p2162
I7
stRp2163
sg1024
g4
((dp2164
g374
I65660
sS'c_sd_t'
p2165
I1175
stRp2166
sg1951
g4
((dp2167
S'c_ng_t'
p2168
I216
sS'c_ng_c'
p2169
I923
stRp2170
sg1623
g4
((dp2171
S't_%_t'
p2172
I5
sS't_ny_t'
p2173
I46
sS't_ad_c'
p2174
I3
sS't_^2_c'
p2175
I1
sS't_na_c'
p2176
I4
sS't_fc_t'
p2177
I1
sS't_aa_t'
p2178
I5
sS't_ba_t'
p2179
I1
sS't_nn_t'
p2180
I3
sS't_qw_c'
p2181
I1
sS't_ny_c'
p2182
I9
sS't_no_c'
p2183
I1
sS't_ba_c'
p2184
I1
sS't_aa_c'
p2185
I1
sg1893
I5
sS't_sv_c'
p2186
I13
sS't_qy_c'
p2187
I1
sS't_bf_c'
p2188
I1
sS't_sd_c'
p2189
I214
sS't_b_t'
p2190
I20
sS't_^q_c'
p2191
I1
sS't_sd_t'
p2192
I4
sS't_fa_c'
p2193
I1
sS't_%_c'
p2194
I9
sS't_aap_am_c'
p2195
I1
sS't_b_c'
p2196
I4
stRp2197
sS'c_bd_t'
p2198
g4
((dp2199
S't_%_t'
p2200
I4
sS't_ny_t'
p2201
I1
sS't_ad_c'
p2202
I1
sS't_aa_t'
p2203
I3
sS't_nn_t'
p2204
I2
sS't_ba_c'
p2205
I1
sS't_aa_c'
p2206
I4
sS't_bf_c'
p2207
I2
sS't_ng_c'
p2208
I1
sS't_sv_c'
p2209
I2
sS't_qy_c'
p2210
I1
sS't_bd_t'
p2211
I1
sS't_sd_c'
p2212
I21
sS't_ar_t'
p2213
I2
sS't_b_t'
p2214
I15
sS't_fo_o_fw_"_by_bc_t'
p2215
I1
sS't_sd_t'
p2216
I1
sS't_bd_c'
p2217
I9
sS't_%_c'
p2218
I4
sS't_qh_c'
p2219
I1
sS't_fo_o_fw_"_by_bc_c'
p2220
I1
sS't_qo_c'
p2221
I1
stRp2222
sg1199
g4
((dp2223
S't_sv_c'
p2224
I3
sS't_qo_c'
p2225
I1
sS't_%_c'
p2226
I1
sS't_aap_am_c'
p2227
I2
sS't_bh_c'
p2228
I1
sS't_b_t'
p2229
I2
sS't_aa_t'
p2230
I1
stRp2231
sg2168
g4
((dp2232
S't_%_t'
p2233
I7
sS't_ny_t'
p2234
I7
sS't_qy^d_c'
p2235
I1
sS't_br_c'
p2236
I1
sS't_na_c'
p2237
I1
sS't_fc_t'
p2238
I1
sS't_nn_c'
p2239
I1
sS't_bk_t'
p2240
I2
sS't_no_c'
p2241
I1
sS't_nn_t'
p2242
I18
sS't_aa_c'
p2243
I1
sS't_bf_c'
p2244
I1
sS't_ng_c'
p2245
I6
sS't_sv_c'
p2246
I14
sS't_qy_c'
p2247
I2
sS't_qw_c'
p2248
I4
sS't_sd_c'
p2249
I160
sS't_arp_nd_c'
p2250
I1
sS't_b_t'
p2251
I16
sS't_sd_t'
p2252
I1
sS't_bd_c'
p2253
I1
sS't_%_c'
p2254
I14
sS't_qh_c'
p2255
I1
sS't_ft_c'
p2256
I1
stRp2257
sg546
g4
((dp2258
S't_%_t'
p2259
I7
sS't_ny_t'
p2260
I8
sS't_ad_c'
p2261
I1
sS't_bk_c'
p2262
I2
sS't_qy^d_c'
p2263
I3
sS't_br_c'
p2264
I1
sS't_na_c'
p2265
I1
sS't_fc_t'
p2266
I2
sS't_aa_t'
p2267
I14
sS't_ba_t'
p2268
I1
sS't_bk_t'
p2269
I1
sS't_ny_c'
p2270
I2
sS't_no_c'
p2271
I1
sS't_^g_t'
p2272
I1
sS't_ba_c'
p2273
I4
sS't_aa_c'
p2274
I2
sS't_bf_c'
p2275
I1
sS't_fp_c'
p2276
I1
sS't_b^m_t'
p2277
I2
sS't_sv_c'
p2278
I11
sS't_qy_c'
p2279
I3
sS't_bd_t'
p2280
I1
sS't_qw_c'
p2281
I3
sS't_sd_c'
p2282
I74
sS't_ar_t'
p2283
I1
sS't_b_t'
p2284
I35
sS't_^h_c'
p2285
I1
sS't_sd_t'
p2286
I13
sS't_bh_c'
p2287
I3
sS't_%_c'
p2288
I10
sS't_b_c'
p2289
I7
stRp2290
sg1029
g4
((dp2291
S'c_fa_t'
p2292
I28
sg1714
I35
stRp2293
sg2155
g4
((dp2294
S't_ny_t'
p2295
I5
sS't_ad_c'
p2296
I1
sS't_b^m_c'
p2297
I4
sS't_bh_t'
p2298
I1
sS't_aa_t'
p2299
I35
sS't_ba_t'
p2300
I7
sS't_oo_co_cc_c'
p2301
I1
sS't_h_c'
p2302
I1
sS't_ny_c'
p2303
I1
sS't_%_c'
p2304
I21
sS't_ba_c'
p2305
I45
sS't_aa_c'
p2306
I17
sS't_b^m_t'
p2307
I9
sS't_sv_c'
p2308
I69
sS't_qy_c'
p2309
I28
sS't_qrr_c'
p2310
I1
sS't_sd_c'
p2311
I91
sS't_b_t'
p2312
I249
sS't_qo_t'
p2313
I1
sS't_sd_t'
p2314
I1
sS't_qy^d_t'
p2315
I1
sS't_bh_c'
p2316
I4
sS't_aap_am_c'
p2317
I2
sS't_qo_c'
p2318
I2
sS't_b_c'
p2319
I11
sS't_bk_c'
p2320
I6
sS't_qy^d_c'
p2321
I10
sS't_^2_c'
p2322
I3
sS't_fc_t'
p2323
I1
sS't_^g_c'
p2324
I1
sS't_bk_t'
p2325
I8
sS't_no_c'
p2326
I2
sS't_nn_t'
p2327
I4
sS't_^g_t'
p2328
I3
sS't_bf_c'
p2329
I58
sS't_fo_o_fw_"_by_bc_c'
p2330
I1
sS't_ng_c'
p2331
I1
sS't_%_t'
p2332
I43
sS't_qw_c'
p2333
I12
sS't_ar_c'
p2334
I1
sS't_^h_c'
p2335
I2
sS't_ar_t'
p2336
I1
sS't_br_c'
p2337
I2
sS't_qh_c'
p2338
I3
sS't_^h_t'
p2339
I1
sS't_^q_c'
p2340
I1
stRp2341
sg2151
g4
((dp2342
S't_ny_t'
p2343
I5
sS't_ad_c'
p2344
I1
sS't_aa_t'
p2345
I14
sS't_ba_t'
p2346
I1
sS't_h_c'
p2347
I9
sS't_ba_c'
p2348
I5
sS't_aa_c'
p2349
I10
sS't_b^m_t'
p2350
I2
sS't_sv_c'
p2351
I126
sS't_qy_c'
p2352
I10
sS't_qrr_c'
p2353
I2
sS't_sd_c'
p2354
I111
sS't_b_t'
p2355
I65
sS't_^q_c'
p2356
I3
sS't_sd_t'
p2357
I2
sS't_qo_c'
p2358
I1
sS't_b_c'
p2359
I4
sS't_^h_c'
p2360
I1
sS't_bk_c'
p2361
I1
sS't_qy^d_c'
p2362
I2
sS't_%_c'
p2363
I34
sS't_na_c'
p2364
I2
sS't_no_c'
p2365
I1
sS't_nn_t'
p2366
I4
sS't_^g_t'
p2367
I1
sS't_fc_c'
p2368
I1
sS't_bf_c'
p2369
I2
sS't_ng_c'
p2370
I1
sS't_%_t'
p2371
I16
sS't_qw_c'
p2372
I5
sS't_fo_o_fw_"_by_bc_t'
p2373
I1
sS't_qh_t'
p2374
I1
sS't_ar_t'
p2375
I1
sS't_br_c'
p2376
I1
sS't_qh_c'
p2377
I54
sS't_fo_o_fw_"_by_bc_c'
p2378
I1
stRp2379
sg1694
g4
((dp2380
S'c_bh_c'
p2381
I312
sS'c_bh_t'
p2382
I428
stRp2383
sg549
g4
((dp2384
g203
I14
sg684
I67
stRp2385
sg472
g4
((dp2386
g2198
I38
sS'c_bd_c'
p2387
I63
stRp2388
sg1624
g4
((dp2389
S'c_ny_t'
p2390
I31
sS'c_ny_c'
p2391
I25
stRp2392
sS'c_na_t'
p2393
g4
((dp2394
S't_t1_c'
p2395
I1
sS't_ny_t'
p2396
I66
sS't_ad_c'
p2397
I2
sS't_aa_t'
p2398
I9
sS't_fo_o_fw_"_by_bc_t'
p2399
I1
sS't_oo_co_cc_c'
p2400
I1
sS't_h_c'
p2401
I2
sS't_ny_c'
p2402
I4
sS't_ba_c'
p2403
I4
sS't_aa_c'
p2404
I5
sS't_b^m_t'
p2405
I1
sS't_sv_c'
p2406
I41
sS't_qy_c'
p2407
I15
sS't_fa_t'
p2408
I1
sS't_qrr_c'
p2409
I1
sS't_sd_c'
p2410
I306
sS't_b_t'
p2411
I40
sS't_^q_c'
p2412
I1
sS't_bf_c'
p2413
I1
sS't_fa_c'
p2414
I2
sS't_bh_t'
p2415
I2
sS't_aap_am_c'
p2416
I1
sS't_qo_c'
p2417
I2
sS't_bh_c'
p2418
I1
sS't_%_c'
p2419
I12
sS't_na_c'
p2420
I26
sS't_fc_t'
p2421
I1
sS't_^g_c'
p2422
I1
sS't_nn_c'
p2423
I1
sS't_bk_t'
p2424
I1
sS't_nn_t'
p2425
I3
sS't_fc_c'
p2426
I4
sS't_na_t'
p2427
I1
sS't_ng_c'
p2428
I1
sS't_%_t'
p2429
I16
sS't_qw_c'
p2430
I4
sS't_ar_c'
p2431
I1
sS't_arp_nd_c'
p2432
I2
sS't_^h_c'
p2433
I3
sS't_br_c'
p2434
I1
sS't_fo_o_fw_"_by_bc_c'
p2435
I1
stRp2436
sS'c_bh_t'
p2437
g4
((dp2438
S't_ny_t'
p2439
I5
sS't_b^m_c'
p2440
I2
sS't_bh_t'
p2441
I3
sS't_aa_t'
p2442
I13
sS't_ba_t'
p2443
I21
sS't_ny_c'
p2444
I2
sS't_ba_c'
p2445
I62
sS't_aa_c'
p2446
I4
sS't_b^m_t'
p2447
I6
sS't_sv_c'
p2448
I39
sS't_qy_c'
p2449
I46
sS't_sd_c'
p2450
I113
sS't_b_t'
p2451
I247
sS't_bd_c'
p2452
I1
sS't_bh_c'
p2453
I13
sS't_aap_am_c'
p2454
I1
sS't_qo_c'
p2455
I2
sS't_b_c'
p2456
I11
sS't_bk_c'
p2457
I6
sS't_qy^d_c'
p2458
I11
sS't_^2_c'
p2459
I3
sS't_na_c'
p2460
I4
sS't_bk_t'
p2461
I18
sS't_nn_t'
p2462
I5
sS't_bf_c'
p2463
I3
sS't_^2_t'
p2464
I1
sS't_ng_c'
p2465
I2
sS't_%_t'
p2466
I23
sS't_qw_c'
p2467
I36
sS't_^h_c'
p2468
I5
sg674
I1
sS't_qw_t'
p2469
I1
sS't_%_c'
p2470
I22
stRp2471
sg1801
g4
((dp2472
S't_sv_c'
p2473
I1
sS't_%_t'
p2474
I7
sS't_bd_t'
p2475
I1
sS't_qw_c'
p2476
I1
sS't_sd_c'
p2477
I3
sS't_fc_t'
p2478
I235
sS't_ft_t'
p2479
I1
sS't_sd_t'
p2480
I1
sS't_%_c'
p2481
I4
sS't_ft_c'
p2482
I2
sS't_fc_c'
p2483
I292
sS't_bf_c'
p2484
I1
stRp2485
sg556
g4
((dp2486
S'c_^g_t'
p2487
I27
sg199
I8
stRp2488
sg986
g4
((dp2489
g1991
I167
sg1982
I24
stRp2490
sg2381
g4
((dp2491
S'c_bh_c'
p2492
I160
sg2437
I312
stRp2493
sg1317
g4
((dp2494
S't_ny_t'
p2495
I9
sS't_ad_c'
p2496
I8
sg270
I1
sS't_fo_o_fw_"_by_bc_t'
p2497
I1
sS't_b^m_c'
p2498
I1
sS't_aa_t'
p2499
I12
sS't_ba_t'
p2500
I1
sS't_h_c'
p2501
I28
sS't_ba_c'
p2502
I2
sS't_aa_c'
p2503
I7
sS't_sv_c'
p2504
I266
sS't_qy_c'
p2505
I23
sS't_qw^d_c'
p2506
I1
sS't_sd_c'
p2507
I435
sS't_b_t'
p2508
I64
sS't_^q_c'
p2509
I1
sS't_sd_t'
p2510
I1
sS't_bf_c'
p2511
I2
sS't_bh_c'
p2512
I3
sS't_aap_am_c'
p2513
I2
sS't_qo_c'
p2514
I3
sS't_b_c'
p2515
I4
sS't_qy^d_c'
p2516
I4
sS't_^2_c'
p2517
I1
sS't_fc_t'
p2518
I1
sS't_nn_c'
p2519
I1
sS't_no_c'
p2520
I2
sS't_nn_t'
p2521
I4
sS't_fc_c'
p2522
I2
sS't_na_t'
p2523
I2
sS't_^h_t'
p2524
I1
sS't_ng_c'
p2525
I1
sS't_%_t'
p2526
I33
sS't_qw_c'
p2527
I16
sS't_^h_c'
p2528
I5
sS't_ft_t'
p2529
I1
sS't_%_c'
p2530
I84
sS't_qh_c'
p2531
I5
sS't_fo_o_fw_"_by_bc_c'
p2532
I1
stRp2533
sg1828
g4
((dp2534
g2393
I462
sS'c_na_c'
p2535
I2046
stRp2536
sg1524
g4
((dp2537
S't_ny_t'
p2538
I6
sS't_fo_o_fw_"_by_bc_t'
p2539
I1
sS't_aa_t'
p2540
I6
sS't_ba_t'
p2541
I1
sS't_h_c'
p2542
I2
sS't_ny_c'
p2543
I1
sS't_%_c'
p2544
I28
sS't_ba_c'
p2545
I2
sS't_aa_c'
p2546
I3
sS't_b^m_t'
p2547
I1
sS't_sv_c'
p2548
I33
sS't_qy_c'
p2549
I18
sS't_sd_c'
p2550
I624
sS't_b_t'
p2551
I56
sS't_sd_t'
p2552
I4
sS't_bh_t'
p2553
I3
sS't_bh_c'
p2554
I3
sS't_qo_c'
p2555
I1
sS't_b_c'
p2556
I4
sS't_qy^d_c'
p2557
I1
sS't_^2_c'
p2558
I1
sS't_na_c'
p2559
I2
sS't_nn_c'
p2560
I8
sS't_no_c'
p2561
I3
sS't_nn_t'
p2562
I177
sS't_fc_c'
p2563
I1
sS't_ng_c'
p2564
I17
sS't_%_t'
p2565
I19
sS't_qw_c'
p2566
I2
sS't_arp_nd_c'
p2567
I1
sS't_^h_c'
p2568
I2
sS't_qw_t'
p2569
I1
sS't_br_c'
p2570
I1
sS't_qh_c'
p2571
I1
stRp2572
sg561
g4
((dp2573
S't_%_t'
p2574
I1
sS't_bk_c'
p2575
I1
sS't_b^m_c'
p2576
I1
sS't_^2_c'
p2577
I1
sS't_na_c'
p2578
I1
sS't_aa_t'
p2579
I1
sS't_bk_t'
p2580
I2
sS't_bh_c'
p2581
I1
sS't_%_c'
p2582
I3
sS't_ba_c'
p2583
I1
sS't_aa_c'
p2584
I1
sS't_sv_c'
p2585
I3
sS't_qy_c'
p2586
I3
sS't_sd_c'
p2587
I16
sS't_b_t'
p2588
I11
sS't_qy^d_c'
p2589
I2
sS't_b_c'
p2590
I1
stRp2591
sg1705
g4
((dp2592
g1835
I1083
sS'c_fc_t'
p2593
I381
stRp2594
sg993
g4
((dp2595
S't_t1_c'
p2596
I1
sS't_ny_t'
p2597
I137
sS't_ad_c'
p2598
I17
sS't_fo_o_fw_"_by_bc_t'
p2599
I7
sS't_b^m_c'
p2600
I12
sS't_t3_t'
p2601
I1
sS't_bh_t'
p2602
I10
sS't_aa_t'
p2603
I330
sS't_ba_t'
p2604
I17
sS't_oo_co_cc_c'
p2605
I7
sS't_h_c'
p2606
I30
sS't_ny_c'
p2607
I24
sS't_ba_c'
p2608
I116
sS't_aa_c'
p2609
I137
sS't_b^m_t'
p2610
I6
sS't_sv_c'
p2611
I500
sS't_qy_c'
p2612
I131
sg280
I2
sS't_fa_t'
p2613
I1
sS't_qrr_c'
p2614
I1
sS't_sd_c'
p2615
I1308
sS't_b_t'
p2616
I1461
sS't_^q_c'
p2617
I6
sS't_sd_t'
p2618
I10
sS't_qw^d_c'
p2619
I1
sS't_fa_c'
p2620
I3
sS't_ng_c'
p2621
I18
sS't_qy_t'
p2622
I1
sS't_bh_c'
p2623
I42
sS't_aap_am_c'
p2624
I3
sS't_qo_c'
p2625
I15
sS't_b_c'
p2626
I104
sS't_bd_c'
p2627
I4
sS't_%_t'
p2628
I247
sS't_^2_c'
p2629
I21
sS't_bk_c'
p2630
I30
sS't_ng_t'
p2631
I1
sS't_sv_t'
p2632
I1
sS't_na_c'
p2633
I41
sS't_fc_t'
p2634
I23
sS't_nn_c'
p2635
I12
sS't_bk_t'
p2636
I17
sg669
I31
sS't_no_c'
p2637
I21
sS't_nn_t'
p2638
I81
sS't_fc_c'
p2639
I48
sS't_na_t'
p2640
I7
sS't_^2_t'
p2641
I8
sS't_fo_o_fw_"_by_bc_c'
p2642
I4
sg2135
I2
sS't_br_t'
p2643
I9
sS't_qw_c'
p2644
I60
sS't_bf_c'
p2645
I23
sS't_ar_c'
p2646
I4
sS't_arp_nd_c'
p2647
I16
sS't_^h_c'
p2648
I12
sS't_bf_t'
p2649
I2
sS't_ar_t'
p2650
I13
sS't_br_c'
p2651
I13
sg884
I1
sS't_%_c'
p2652
I257
sS't_qh_c'
p2653
I7
sS't_^h_t'
p2654
I2
stRp2655
sg2042
g4
((dp2656
S't_ny_t'
p2657
I7
sS't_b^m_c'
p2658
I5
sS't_aa_t'
p2659
I10
sS't_ba_t'
p2660
I1
sS't_h_c'
p2661
I1
sS't_ny_c'
p2662
I5
sS't_ba_c'
p2663
I3
sS't_aa_c'
p2664
I3
sS't_b^m_t'
p2665
I1
sS't_sv_c'
p2666
I1
sS't_qy_c'
p2667
I9
sS't_na_t'
p2668
I1
sS't_sd_c'
p2669
I27
sS't_b_t'
p2670
I32
sS't_fa_c'
p2671
I1
sS't_qy_t'
p2672
I1
sS't_bh_c'
p2673
I4
sS't_b_c'
p2674
I1
sS't_br_t'
p2675
I1
sS't_bk_c'
p2676
I5
sS't_qy^d_c'
p2677
I2
sS't_br_c'
p2678
I1
sS't_na_c'
p2679
I5
sS't_nn_c'
p2680
I6
sS't_bk_t'
p2681
I5
sS't_no_c'
p2682
I1
sS't_nn_t'
p2683
I6
sS't_bf_c'
p2684
I4
sS't_^2_t'
p2685
I1
sS't_bh_t'
p2686
I2
sS't_%_t'
p2687
I5
sS't_qw_c'
p2688
I5
sS't_ar_c'
p2689
I1
sS't_%_c'
p2690
I2
stRp2691
sg774
g4
((dp2692
S'c_arp_nd_c'
p2693
I1092
sS'c_arp_nd_t'
p2694
I164
stRp2695
sg2374
g4
((dp2696
S't_sv_c'
p2697
I3
sS't_sd_c'
p2698
I1
sS't_qh_t'
p2699
I1
stRp2700
sg995
g4
((dp2701
g1238
I4694
sg1152
I3306
stRp2702
sg1217
g4
((dp2703
g2148
I488
sS'c_qh_t'
p2704
I19
stRp2705
sg2694
g4
((dp2706
S't_%_t'
p2707
I5
sS't_sv_c'
p2708
I17
sS't_ny_t'
p2709
I3
sS't_sd_c'
p2710
I111
sS't_qy_c'
p2711
I2
sS't_arp_nd_c'
p2712
I6
sS't_aa_t'
p2713
I3
sS't_qh_c'
p2714
I1
sS't_ny_c'
p2715
I2
sS't_no_c'
p2716
I1
sS't_%_c'
p2717
I13
sS't_nn_t'
p2718
I1
sS't_b_t'
p2719
I3
sS't_ng_c'
p2720
I1
stRp2721
sg2043
g4
((dp2722
S'c_br_t'
p2723
I85
sS'c_br_c'
p2724
I137
stRp2725
s.