cnltk.probability
ConditionalFreqDist
p1
(tRp2
S'rpSE'
p3
cnltk.probability
FreqDist
p4
((dp5
g3
I954
sS'e'
I636
sS'f'
I11973
sS'i'
I175
sS'rpSM'
p6
I172
sS'si'
p7
I346
sS'rpE'
p8
I98
sS'se'
p9
I6
stRp10
sS'e'
g4
((dp11
S'e'
I11294
sg8
I44
sg9
I5373
sS'f'
I29558
stRp12
sS'f'
g4
((dp13
g3
I10607
sS'e'
I28276
sS'f'
I520381
sS'i'
I3136
sg8
I158
sg6
I5100
sg9
I85308
stRp14
sS'i'
g4
((dp15
S'i'
I1344
sg6
I1304
sg3
I2135
stRp16
sg6
g4
((dp17
g3
I175
sS'e'
I42
sS'i'
I21
sg8
I3825
sg6
I15
sS'rpM'
p18
I2898
stRp19
sg7
g4
((dp20
g3
I346
stRp21
sS's'
g4
((dp22
S'e'
I5650
sg8
I452
sS'f'
I85041
stRp23
sg8
g4
((dp24
g3
I56
sS'e'
I320
sS'f'
I6013
sS'i'
I77
sg8
I24
sg6
I324
sg9
I456
stRp25
sg18
g4
((dp26
g3
I87
sS'e'
I51
sS'i'
I30
sg8
I2669
sg6
I61
sg18
I3283
stRp27
s.