cnltk.probability
ConditionalFreqDist
p1
(tRp2
S't_e_t'
p3
cnltk.probability
FreqDist
p4
((dp5
S't_e_t'
p6
I1
sS't_f_c'
p7
I1
sS't_f_t\n'
p8
I1
sS't_e_c'
p9
I1
stRp10
sS't_f_t'
p11
g4
((dp12
g6
I1
sg7
I1
sg8
I1
sg9
I1
stRp13
sS'c_f_t'
p14
g4
((dp15
g6
I1
sg7
I1
sg8
I1
sg9
I1
stRp16
sS'c_rpSE_c'
p17
g4
((dp18
S'c_e_c'
p19
I1
sS'c_f_t'
p20
I1
sS'c_rpSE_c'
p21
I1
sS'c_f_c'
p22
I1
sS'c_i_c'
p23
I1
sS'c_rpSE_t'
p24
I1
sS'c_e_t'
p25
I1
stRp26
sS'c_e_t'
p27
g4
((dp28
g6
I1
sg7
I1
sg8
I1
sg9
I1
stRp29
sS't_f_c'
p30
g4
((dp31
g19
I1
sg20
I1
sg21
I1
sg22
I1
sg23
I1
sg24
I1
sg25
I1
stRp32
sS's'
g4
((dp33
g6
I1
sg7
I1
sg8
I1
sg9
I1
stRp34
sS't_e_c'
p35
g4
((dp36
g19
I1
sg20
I1
sg25
I1
sg22
I1
stRp37
sS'c_e_c'
p38
g4
((dp39
g19
I1
sg20
I1
sg25
I1
sg22
I1
stRp40
sS'c_i_c'
p41
g4
((dp42
g21
I1
sg23
I1
sg24
I1
stRp43
sS'c_rpSE_t'
p44
g4
((dp45
g6
I1
sg7
I1
sg8
I1
sg9
I1
stRp46
sS'c_f_c'
p47
g4
((dp48
g19
I1
sg20
I1
sg21
I1
sg22
I1
sg23
I1
sg24
I1
sg25
I1
stRp49
s.