cnltk.probability
ConditionalFreqDist
p1
(tRp2
S'i'
cnltk.probability
FreqDist
p3
((dp4
S'i'
I1
sS'rpSE'
p5
I1
stRp6
sS'rpSE'
p7
g3
((dp8
S'i'
I1
sg5
I1
sS'e'
I1
sS'se\n'
p9
I1
sS'f'
I1
stRp10
sS'e'
g3
((dp11
S'e'
I1
sg9
I1
sS'f'
I1
stRp12
sS's'
g3
((dp13
S'e'
I1
sS'f'
I1
stRp14
sS'f'
g3
((dp15
S'i'
I1
sg5
I1
sS'e'
I1
sg9
I1
sS'f'
I1
stRp16
s.