cnltk.probability
ConditionalFreqDist
p1
(tRp2
S'ba_take'
p3
cnltk.probability
FreqDist
p4
((dp5
S'qy_keep'
p6
I19
sS'qw_keep'
p7
I11
sS'ba_keep'
p8
I41
sS'%_take'
p9
I7
sS'aa_keep'
p10
I13
sS'na_keep'
p11
I1
sS'qh_keep'
p12
I1
sS'ny_take'
p13
I1
sS'ad_keep'
p14
I7
sS'^h_keep'
p15
I2
sS'bh_keep'
p16
I3
sS'aa_take'
p17
I2
sS'fc_keep'
p18
I3
sS'^q_keep'
p19
I2
sS'sd_keep'
p20
I215
sS'fo_o_fw_"_by_bc_keep'
p21
I1
sS'bf_keep'
p22
I5
sS'b_keep'
p23
I41
sS'nn_take'
p24
I1
sS'qy^d_keep'
p25
I4
sS'sv_keep'
p26
I58
sS'ng_keep'
p27
I1
sS'h_keep'
p28
I3
sS'bd_keep'
p29
I1
sS'%_keep'
p30
I46
sS'b_take'
p31
I26
sS'^2_keep'
p32
I1
stRp33
sS'qy_keep'
p34
g4
((dp35
S'ba_take'
p36
I1
sS'qy_keep'
p37
I207
sS'nn_keep'
p38
I115
sS'aa_keep'
p39
I10
sS'sd_take'
p40
I11
sS'qh_keep'
p41
I8
sS'br_keep'
p42
I35
sS'ny_take'
p43
I945
sS'ad_keep'
p44
I5
sS'^h_keep'
p45
I38
sS'ny_keep'
p46
I188
sS'bh_keep'
p47
I5
sS'ng_take'
p48
I4
sS'aa_take'
p49
I8
sS'ar_keep'
p50
I3
sS'arp_nd_take'
p51
I5
sS'b_keep'
p52
I19
sS'qw_take'
p53
I3
sS'qo_keep'
p54
I8
sS'sv_keep'
p55
I106
sS'qrr_keep'
p56
I132
sS'ng_keep'
p57
I156
sS'no_keep'
p58
I137
sS'%_keep'
p59
I259
sS'h_keep'
p60
I15
sS'qw_keep'
p61
I27
sS'^2_take'
p62
I2
sS'no_take'
p63
I3
sS'%_take'
p64
I58
sS'arp_nd_keep'
p65
I59
sS'na_keep'
p66
I351
sS'bk_keep'
p67
I8
sS'b^m_keep'
p68
I7
sS'ba_keep'
p69
I11
sS'b^m_take'
p70
I3
sS'sd_keep'
p71
I449
sS'na_take'
p72
I77
sS'fc_keep'
p73
I2
sS'aap_am_keep'
p74
I2
sS'^g_keep'
p75
I8
sS'fo_o_fw_"_by_bc_keep'
p76
I10
sS'bf_keep'
p77
I5
sS'oo_co_cc_keep'
p78
I1
sS'qy^d_keep'
p79
I30
sS'^h_take'
p80
I10
sS'fo_o_fw_"_by_bc_take'
p81
I1
sS'qy_take'
p82
I7
sS't1_keep'
p83
I1
sS'b_take'
p84
I70
sS'nn_take'
p85
I479
sS'br_take'
p86
I13
sS'fa_keep'
p87
I2
sS'se'
p88
I3
sS'^2_keep'
p89
I4
stRp90
sS'bh_take'
p91
g4
((dp92
S'qy_keep'
p93
I10
sS'qw_keep'
p94
I4
sS'%_take'
p95
I4
sS'aa_keep'
p96
I1
sS'sd_take'
p97
I1
sS'ny_take'
p98
I61
sS'ba_keep'
p99
I5
sS'^h_keep'
p100
I1
sS'ny_keep'
p101
I3
sS'bh_keep'
p102
I3
sS'fc_keep'
p103
I1
sS'sd_keep'
p104
I49
sS'b_keep'
p105
I8
sS'nn_take'
p106
I1
sS'qo_keep'
p107
I1
sS'sv_keep'
p108
I13
sS'h_keep'
p109
I2
sS'%_keep'
p110
I11
sS'b_take'
p111
I4
stRp112
sS'h_take'
p113
g4
((dp114
S'sd_keep'
p115
I1
stRp116
sS'ft_take'
p117
g4
((dp118
S'fc_keep'
p119
I2
sS'fc_take'
p120
I1
sS'sd_keep'
p121
I3
stRp122
sS'aa_keep'
p123
g4
((dp124
S'ba_take'
p125
I4
sS'qy_keep'
p126
I86
sS'aa_keep'
p127
I1028
sS'fc_take'
p128
I5
sS'sd_take'
p129
I3
sS'qh_keep'
p130
I28
sS'br_keep'
p131
I2
sS'ny_take'
p132
I2
sS'sv_keep'
p133
I1493
sS'ad_keep'
p134
I27
sS'^h_keep'
p135
I15
sS'ny_keep'
p136
I1
sS'bh_keep'
p137
I7
sS'aa_take'
p138
I36
sS'ar_keep'
p139
I5
sS'^q_keep'
p140
I11
sS'b_keep'
p141
I148
sS'qo_keep'
p142
I18
sS't3_keep'
p143
I2
sS'sv_take'
p144
I1
sS'%_keep'
p145
I442
sS'b_take'
p146
I264
sS'oo_co_cc_keep'
p147
I5
sg88
I5
sS'qw_keep'
p148
I33
sS'ft_keep'
p149
I3
sS'%_take'
p150
I106
sS'bd_keep'
p151
I1
sS'ar_take'
p152
I1
sS'arp_nd_keep'
p153
I2
sS'b^m_keep'
p154
I7
sS'ba_keep'
p155
I80
sS'qw^d_keep'
p156
I2
sS'na_take'
p157
I1
sS'fp_take'
p158
I1
sS'fc_keep'
p159
I34
sS'aap_am_keep'
p160
I6
sS'sd_keep'
p161
I1610
sS'fo_o_fw_"_by_bc_keep'
p162
I10
sS'bf_keep'
p163
I42
sS'nn_take'
p164
I1
sS'qy^d_keep'
p165
I21
sS'fo_o_fw_"_by_bc_take'
p166
I1
sS'h_keep'
p167
I36
sS'b^m_take'
p168
I19
sS'bk_keep'
p169
I2
sS'fa_keep'
p170
I1
sS'bk_take'
p171
I2
sS'^2_keep'
p172
I15
stRp173
sS'fc_take'
p174
g4
((dp175
S'fc_keep'
p176
I392
sS'qw_keep'
p177
I1
sS'sd_keep'
p178
I2
sS'ft_keep'
p179
I4
sS'bf_keep'
p180
I1
sS'fc_take'
p181
I170
sS'sv_keep'
p182
I1
sS'%_keep'
p183
I8
sg88
I209
stRp184
sS'qw^d_keep'
p185
g4
((dp186
S'qy_keep'
p187
I1
sS'ba_keep'
p188
I1
sS'aa_keep'
p189
I1
sS'sd_take'
p190
I1
sS'ny_take'
p191
I1
sS'ad_keep'
p192
I3
sS'^h_keep'
p193
I1
sS'fc_keep'
p194
I1
sS'sd_keep'
p195
I35
sS'h_keep'
p196
I2
sS'qy^d_keep'
p197
I2
sS'sv_keep'
p198
I8
sS'qrr_keep'
p199
I1
sS'b_take'
p200
I5
sS'no_keep'
p201
I2
sS'%_keep'
p202
I6
sS'bk_take'
p203
I1
stRp204
sS'sd_take'
p205
g4
((dp206
S'qy_keep'
p207
I4
sS'nn_keep'
p208
I1
sS'^2_take'
p209
I1
sS'aa_keep'
p210
I2
sS'sd_take'
p211
I1
sS'bk_keep'
p212
I7
sS'bh_take'
p213
I1
sS'ny_take'
p214
I2
sS'ba_keep'
p215
I5
sS'qw^d_keep'
p216
I1
sS'sd_keep'
p217
I42
sS'ny_keep'
p218
I2
sS'bh_keep'
p219
I1
sS'aa_take'
p220
I2
sS'fc_keep'
p221
I1
sS'qw_keep'
p222
I3
sS'^g_keep'
p223
I1
sS'bf_keep'
p224
I1
sS'b_keep'
p225
I5
sS'b^m_take'
p226
I16
sS'qy^d_keep'
p227
I1
sS'sv_keep'
p228
I7
sS'b^m_keep'
p229
I3
sS'bk_take'
p230
I3
sS'qy_take'
p231
I2
sS'br_take'
p232
I1
sS'%_keep'
p233
I4
sS'b_take'
p234
I13
stRp235
sS'qh_keep'
p236
g4
((dp237
S'ba_take'
p238
I2
sS'qy_keep'
p239
I9
sS'nn_keep'
p240
I3
sS'aa_keep'
p241
I25
sS'qh_keep'
p242
I37
sS'ny_take'
p243
I7
sS'ny_keep'
p244
I1
sS'bh_keep'
p245
I1
sS'aa_take'
p246
I36
sS'ar_keep'
p247
I1
sS'^q_keep'
p248
I4
sS'b_keep'
p249
I12
sS'qw_take'
p250
I1
sS'sv_keep'
p251
I88
sS'qrr_keep'
p252
I2
sS'ng_keep'
p253
I1
sS'no_keep'
p254
I4
sS'%_keep'
p255
I37
sS'h_keep'
p256
I5
sS'qw_keep'
p257
I5
sS'%_take'
p258
I5
sS'b^m_keep'
p259
I1
sS'ba_keep'
p260
I6
sS'sd_keep'
p261
I96
sS'fc_keep'
p262
I1
sS'^g_keep'
p263
I1
sS'fo_o_fw_"_by_bc_keep'
p264
I1
sS'bf_keep'
p265
I3
sS'nn_take'
p266
I2
sS'qy^d_keep'
p267
I1
sS'b_take'
p268
I108
sg88
I3
sS'^2_keep'
p269
I2
stRp270
sg38
g4
((dp271
S'ba_take'
p272
I4
sS'qy_keep'
p273
I2
sS'nn_keep'
p274
I56
sS'ba_keep'
p275
I4
sS'%_take'
p276
I2
sS'bd_keep'
p277
I1
sS'qh_keep'
p278
I2
sS'bh_take'
p279
I3
sS'bk_keep'
p280
I4
sS'ad_keep'
p281
I1
sS'^h_keep'
p282
I2
sS'ny_keep'
p283
I2
sS'aa_take'
p284
I1
sS'fc_keep'
p285
I1
sS'qw_keep'
p286
I1
sS'sd_keep'
p287
I287
sS'bf_keep'
p288
I1
sS'b_keep'
p289
I2
sS'nn_take'
p290
I2
sS'qy^d_keep'
p291
I3
sS'sv_keep'
p292
I26
sS'qrr_keep'
p293
I1
sS'ng_keep'
p294
I7
sS'bk_take'
p295
I7
sS'b^m_take'
p296
I6
sS'no_keep'
p297
I1
sS'%_keep'
p298
I25
sS'b_take'
p299
I11
stRp300
sS'bk_keep'
p301
g4
((dp302
S'qy_keep'
p303
I28
sS'nn_keep'
p304
I1
sS'aa_keep'
p305
I2
sS'sd_take'
p306
I1
sS'qh_keep'
p307
I1
sS'bk_keep'
p308
I34
sS'ad_keep'
p309
I5
sS'^h_keep'
p310
I1
sS'ny_keep'
p311
I1
sS'aa_take'
p312
I2
sS'ar_keep'
p313
I1
sS'b_keep'
p314
I45
sS'qo_keep'
p315
I7
sS'sv_keep'
p316
I32
sS'no_keep'
p317
I1
sS'%_keep'
p318
I57
sS'h_keep'
p319
I3
sS'qw_keep'
p320
I9
sS'ft_keep'
p321
I1
sS'%_take'
p322
I6
sS'bd_keep'
p323
I1
sS'b^m_keep'
p324
I1
sS'ba_keep'
p325
I6
sS'qw^d_keep'
p326
I2
sS'na_take'
p327
I1
sS'fc_keep'
p328
I6
sS'sd_keep'
p329
I283
sS'fo_o_fw_"_by_bc_keep'
p330
I2
sS'bf_keep'
p331
I13
sS'nn_take'
p332
I5
sS'qy^d_keep'
p333
I15
sS'b_take'
p334
I41
sS'b^m_take'
p335
I1
sS'br_take'
p336
I1
sS'ny_take'
p337
I3
sS'^2_keep'
p338
I1
stRp339
sS't3_keep'
p340
g4
((dp341
S'qy_keep'
p342
I1
sS'qw_keep'
p343
I2
sS'sd_keep'
p344
I27
sS'sv_keep'
p345
I6
sS'b_keep'
p346
I3
sS't3_keep'
p347
I42
sS'%_keep'
p348
I9
sS'h_keep'
p349
I1
sS'ad_keep'
p350
I1
sS'^h_keep'
p351
I1
sS'fa_keep'
p352
I3
sS'bh_keep'
p353
I1
sg88
I1
sS'b_take'
p354
I2
stRp355
sS'ad_keep'
p356
g4
((dp357
S'ba_take'
p358
I1
sS'qy_keep'
p359
I25
sS'bh_take'
p360
I1
sS'aa_keep'
p361
I37
sS'sd_take'
p362
I1
sS'qh_keep'
p363
I6
sS'nn_keep'
p364
I1
sS'sv_keep'
p365
I55
sS'ad_keep'
p366
I62
sS'^h_keep'
p367
I3
sS'aa_take'
p368
I114
sS'ar_keep'
p369
I3
sS'^q_keep'
p370
I1
sS'b_keep'
p371
I8
sS'qo_keep'
p372
I3
sS't3_keep'
p373
I4
sS'bd_keep'
p374
I2
sS'%_keep'
p375
I34
sS'h_keep'
p376
I5
sS'ad_take'
p377
I1
sS'qw_keep'
p378
I18
sS'^2_take'
p379
I1
sS'%_take'
p380
I6
sS'fp_keep'
p381
I1
sS'ar_take'
p382
I7
sS'b^m_keep'
p383
I4
sS'ba_keep'
p384
I6
sS'qw^d_keep'
p385
I1
sS'bk_take'
p386
I1
sS'fc_keep'
p387
I7
sS'aap_am_keep'
p388
I1
sS'sd_keep'
p389
I154
sS'bf_keep'
p390
I1
sS'b^m_take'
p391
I1
sS'qy^d_keep'
p392
I4
sS'br_keep'
p393
I1
sS'b_take'
p394
I70
sS'oo_co_cc_keep'
p395
I5
sS'br_take'
p396
I1
sS'fa_keep'
p397
I5
sg88
I3
sS'^2_keep'
p398
I1
stRp399
sS'^h_keep'
p400
g4
((dp401
S'qy_keep'
p402
I23
sS'nn_keep'
p403
I1
sS'ba_keep'
p404
I5
sS'arp_nd_keep'
p405
I1
sS'na_keep'
p406
I7
sS'qh_keep'
p407
I2
sS'bh_take'
p408
I1
sS'ad_keep'
p409
I1
sS'qw^d_keep'
p410
I1
sS'^h_keep'
p411
I39
sS'ny_keep'
p412
I5
sS'bh_keep'
p413
I2
sS'ar_keep'
p414
I1
sS'^q_keep'
p415
I2
sS'sd_keep'
p416
I236
sS'fo_o_fw_"_by_bc_keep'
p417
I2
sS'bf_keep'
p418
I1
sS'b_keep'
p419
I2
sS'qo_keep'
p420
I3
sS'qy^d_keep'
p421
I7
sS'sv_keep'
p422
I27
sS'qw_keep'
p423
I19
sS'ng_keep'
p424
I7
sg88
I1
sS'bk_take'
p425
I1
sS't1_keep'
p426
I13
sS'h_keep'
p427
I2
sS'no_keep'
p428
I1
sS'%_keep'
p429
I38
sS'b_take'
p430
I18
sS'^2_keep'
p431
I1
stRp432
sg46
g4
((dp433
S'ba_take'
p434
I1
sS'qy_keep'
p435
I30
sS'nn_keep'
p436
I2
sS'aa_keep'
p437
I1
sS'sd_take'
p438
I1
sS'qh_keep'
p439
I1
sS'br_keep'
p440
I1
sS'bk_keep'
p441
I7
sS'ad_keep'
p442
I3
sS'^h_keep'
p443
I1
sS'ny_keep'
p444
I92
sS'bh_keep'
p445
I3
sS'aa_take'
p446
I2
sS'ar_keep'
p447
I2
sS'^q_keep'
p448
I2
sS'b_keep'
p449
I9
sS'sv_keep'
p450
I51
sS'%_keep'
p451
I39
sS'b_take'
p452
I52
sS'qw_keep'
p453
I6
sS'%_take'
p454
I8
sS'b^m_keep'
p455
I3
sS'ba_keep'
p456
I16
sS'fc_keep'
p457
I1
sS'na_keep'
p458
I11
sS'sd_keep'
p459
I416
sS'fo_o_fw_"_by_bc_keep'
p460
I1
sS'bf_keep'
p461
I3
sS'b^m_take'
p462
I15
sS'qy^d_keep'
p463
I11
sS'^h_take'
p464
I1
sS'bk_take'
p465
I26
sS'nn_take'
p466
I1
sS'ny_take'
p467
I2
sS'fa_keep'
p468
I1
sg88
I1
sS'^2_keep'
p469
I2
stRp470
sS'^q_take'
p471
g4
((dp472
S'^q_keep'
p473
I2
stRp474
sS'bh_keep'
p475
g4
((dp476
S'qy_keep'
p477
I18
sS'nn_keep'
p478
I2
sS'aa_keep'
p479
I3
sS'ny_take'
p480
I262
sS'ny_keep'
p481
I25
sS'bh_keep'
p482
I5
sS'aa_take'
p483
I7
sS'ar_keep'
p484
I1
sS'^q_keep'
p485
I1
sS'b_keep'
p486
I33
sS'qo_keep'
p487
I4
sS'sv_keep'
p488
I35
sS'ng_keep'
p489
I1
sS'no_keep'
p490
I1
sS'%_keep'
p491
I34
sS'b_take'
p492
I11
sS'ad_take'
p493
I1
sS'qw_keep'
p494
I13
sS'%_take'
p495
I9
sS'qy_take'
p496
I2
sS'ba_keep'
p497
I18
sS'na_take'
p498
I1
sS'na_keep'
p499
I11
sS'sd_keep'
p500
I234
sS'bf_keep'
p501
I2
sS'oo_co_cc_keep'
p502
I1
sS'qy^d_keep'
p503
I4
sS't1_keep'
p504
I1
sS'h_keep'
p505
I1
sS'nn_take'
p506
I14
sS'bk_keep'
p507
I4
sg88
I2
stRp508
sg48
g4
((dp509
S'b^m_take'
p510
I1
sS'sd_keep'
p511
I2
sS'bk_take'
p512
I1
stRp513
sS'aa_take'
p514
g4
((dp515
S'ba_take'
p516
I5
sg34
I61
sS'nn_keep'
p517
I1
sg123
I1431
sS'fc_take'
p518
I1
sS'qh_keep'
p519
I6
sS'bk_keep'
p520
I3
sS'sv_keep'
p521
I946
sS'ad_keep'
p522
I19
sS'^h_keep'
p523
I5
sS'ft_take'
p524
I1
sS'bh_keep'
p525
I3
sS'aa_take'
p526
I15
sS'ar_keep'
p527
I5
sS'^q_keep'
p528
I10
sS'b_keep'
p529
I64
sS'qo_keep'
p530
I8
sS't3_keep'
p531
I3
sS'bd_keep'
p532
I2
sS't3_take'
p533
I2
sS'fa_take'
p534
I1
sS'no_keep'
p535
I1
sS'%_keep'
p536
I244
sS'b_take'
p537
I65
sS'qw_keep'
p538
I20
sS'ft_keep'
p539
I5
sS'%_take'
p540
I29
sS'fp_keep'
p541
I2
sS'arp_nd_keep'
p542
I1
sS'b^m_keep'
p543
I13
sS'ba_keep'
p544
I85
sS'qw^d_keep'
p545
I1
sS'bk_take'
p546
I5
sS'fp_take'
p547
I1
sS'fc_keep'
p548
I14
sS'aap_am_keep'
p549
I12
sS'sd_keep'
p550
I1095
sS'fo_o_fw_"_by_bc_keep'
p551
I8
sS'bf_keep'
p552
I51
sS'b^m_take'
p553
I9
sS'qy^d_keep'
p554
I12
sS't1_keep'
p555
I2
sS'h_keep'
p556
I11
sS'oo_co_cc_keep'
p557
I3
sS'ny_take'
p558
I1
sS'fa_keep'
p559
I1
sg88
I5
sS'^2_keep'
p560
I8
stRp561
sS'ar_keep'
p562
g4
((dp563
S'qy_keep'
p564
I5
sS'qw_keep'
p565
I1
sS'ba_keep'
p566
I2
sS'aa_keep'
p567
I3
sS'qh_keep'
p568
I1
sS'b^m_keep'
p569
I2
sS'ad_keep'
p570
I2
sS'qw^d_keep'
p571
I1
sS'^h_keep'
p572
I2
sS'bh_keep'
p573
I2
sS'ar_keep'
p574
I32
sS'sd_keep'
p575
I102
sS'fo_o_fw_"_by_bc_keep'
p576
I1
sS'b_keep'
p577
I1
sS'b^m_take'
p578
I1
sS'qy^d_keep'
p579
I1
sS'sv_keep'
p580
I36
sS'b_take'
p581
I7
sS'bd_keep'
p582
I1
sS'fa_keep'
p583
I1
sS'%_keep'
p584
I17
sS'h_keep'
p585
I2
sS'^2_keep'
p586
I1
stRp587
sg51
g4
((dp588
S'arp_nd_keep'
p589
I1
sS'sd_keep'
p590
I3
sS'ba_keep'
p591
I1
sS'oo_co_cc_keep'
p592
I1
sS'qo_keep'
p593
I1
sS'sv_keep'
p594
I7
stRp595
sS'^q_keep'
p596
g4
((dp597
S'ba_take'
p598
I1
sS'qy_keep'
p599
I13
sS'nn_keep'
p600
I1
sS'ba_keep'
p601
I15
sS'%_take'
p602
I3
sS'aa_keep'
p603
I18
sS'sd_take'
p604
I1
sS'qh_keep'
p605
I7
sS'qw_keep'
p606
I5
sS'ny_take'
p607
I2
sS'ad_keep'
p608
I1
sS'sd_keep'
p609
I185
sS'bh_keep'
p610
I1
sS'aa_take'
p611
I30
sS'ar_keep'
p612
I1
sS'^q_keep'
p613
I258
sS'^g_keep'
p614
I1
sS'fo_o_fw_"_by_bc_keep'
p615
I1
sS'bf_keep'
p616
I2
sS'b_keep'
p617
I7
sS'bk_take'
p618
I1
sS'qy^d_keep'
p619
I1
sS'sv_keep'
p620
I70
sS'b^m_keep'
p621
I1
sS'b_take'
p622
I185
sS'br_take'
p623
I1
sg88
I6
sS'%_keep'
p624
I37
sS'h_keep'
p625
I2
sS'^2_keep'
p626
I1
stRp627
sS'fo_o_fw_"_by_bc_take'
p628
g4
((dp629
S'ba_take'
p630
I1
sS'qy_keep'
p631
I65
sS'qw_keep'
p632
I58
sS'aa_keep'
p633
I1
sS'fc_take'
p634
I1
sS'qh_keep'
p635
I2
sS'b^m_keep'
p636
I1
sS'ny_take'
p637
I2
sS'sv_keep'
p638
I19
sS'ad_keep'
p639
I24
sS'^h_keep'
p640
I3
sS'ny_keep'
p641
I1
sS'aa_take'
p642
I1
sS'fc_keep'
p643
I5
sS'sd_keep'
p644
I112
sS'fo_o_fw_"_by_bc_keep'
p645
I15
sS'fo_o_fw_"_by_bc_take'
p646
I7
sS'b^m_take'
p647
I14
sS'qo_keep'
p648
I22
sS'qy^d_keep'
p649
I5
sS't3_keep'
p650
I1
sS'b_keep'
p651
I9
sS'h_keep'
p652
I2
sS'fp_keep'
p653
I3
sS'br_take'
p654
I1
sS'fa_keep'
p655
I2
sS'fp_take'
p656
I3
sS'%_keep'
p657
I14
sS'b_take'
p658
I11
stRp659
sg72
g4
((dp660
S'ba_take'
p661
I1
sS'qy_keep'
p662
I5
sS'bh_take'
p663
I1
sS'ft_keep'
p664
I1
sS'na_keep'
p665
I12
sS'qh_keep'
p666
I1
sS'qw_keep'
p667
I5
sS'bk_keep'
p668
I1
sS'ad_keep'
p669
I2
sS'ny_keep'
p670
I12
sS'bh_keep'
p671
I1
sS'^q_keep'
p672
I2
sS'sd_keep'
p673
I42
sS'bf_keep'
p674
I1
sS'fo_o_fw_"_by_bc_take'
p675
I1
sS'b^m_take'
p676
I1
sS'qo_keep'
p677
I1
sS'qy^d_keep'
p678
I3
sS'sv_keep'
p679
I8
sS'^h_take'
p680
I1
sS'b^m_keep'
p681
I1
sS'bk_take'
p682
I7
sS'ba_keep'
p683
I2
sS'%_keep'
p684
I6
sS'b_take'
p685
I5
sS'^2_keep'
p686
I1
stRp687
sg648
g4
((dp688
S'qy_keep'
p689
I60
sS'nn_keep'
p690
I1
sS'aa_keep'
p691
I7
sS'sd_take'
p692
I2
sS'qh_keep'
p693
I1
sS'br_keep'
p694
I3
sS'bk_keep'
p695
I1
sS'^h_keep'
p696
I17
sS'ny_keep'
p697
I3
sS'b_keep'
p698
I11
sS'qw_take'
p699
I1
sS'qo_keep'
p700
I11
sS'sv_keep'
p701
I75
sS'qrr_keep'
p702
I1
sS'no_keep'
p703
I1
sS'%_keep'
p704
I39
sS'b_take'
p705
I16
sg88
I4
sS'qw_keep'
p706
I13
sS'%_take'
p707
I6
sS'arp_nd_keep'
p708
I12
sS'b^m_keep'
p709
I2
sS'qw^d_keep'
p710
I1
sS'na_keep'
p711
I2
sS'sd_keep'
p712
I222
sS'fo_o_fw_"_by_bc_keep'
p713
I1
sS'bf_keep'
p714
I1
sS'b^m_take'
p715
I2
sS'qy^d_keep'
p716
I3
sS'^h_take'
p717
I7
sS'fo_o_fw_"_by_bc_take'
p718
I1
sS'h_keep'
p719
I4
sS'br_take'
p720
I1
sS'ny_take'
p721
I3
stRp722
sg701
g4
((dp723
S'ba_take'
p724
I43
sS'qy_keep'
p725
I303
sg91
I21
sg117
I1
sS'aa_keep'
p726
I1160
sS'sd_take'
p727
I2
sS'aap_am_take'
p728
I5
sS'qh_keep'
p729
I92
sS'br_keep'
p730
I20
sS'bk_keep'
p731
I11
sS'sv_keep'
p732
I6235
sS'ad_keep'
p733
I53
sS'^h_keep'
p734
I27
sS'ny_keep'
p735
I6
sS'bh_keep'
p736
I45
sg514
I2057
sS'ar_keep'
p737
I40
sS'arp_nd_take'
p738
I4
sS'^q_keep'
p739
I87
sS'b_keep'
p740
I301
sS'qw_take'
p741
I2
sS'qo_keep'
p742
I48
sS't3_keep'
p743
I4
sS'qrr_keep'
p744
I1
sS'ft_keep'
p745
I3
sS'no_keep'
p746
I1
sS'%_keep'
p747
I1489
sS'h_keep'
p748
I183
sS'qw_keep'
p749
I96
sS'ny_take'
p750
I8
sS'^2_take'
p751
I12
sS'%_take'
p752
I193
sS'bd_keep'
p753
I10
sS'ar_take'
p754
I22
sS'arp_nd_keep'
p755
I8
sS'nn_keep'
p756
I6
sS'bf_take'
p757
I3
sS'qy^d_take'
p758
I2
sS'b^m_keep'
p759
I21
sS'ba_keep'
p760
I288
sS'qw^d_keep'
p761
I7
sS'aap_am_keep'
p762
I25
sS'sd_keep'
p763
I3381
sS'bd_take'
p764
I1
sS'fc_keep'
p765
I33
sS'na_keep'
p766
I7
sS'^g_keep'
p767
I22
sS'fo_o_fw_"_by_bc_keep'
p768
I30
sS'bf_keep'
p769
I70
sS'oo_co_cc_keep'
p770
I6
sS'qy^d_keep'
p771
I58
sS'b^m_take'
p772
I6
sS'fo_o_fw_"_by_bc_take'
p773
I3
sS'qy_take'
p774
I1
sS't1_keep'
p775
I7
sS'b_take'
p776
I5654
sS'nn_take'
p777
I3
sS'br_take'
p778
I6
sS'fa_keep'
p779
I4
sS'bk_take'
p780
I13
sg88
I105
sS'^2_keep'
p781
I110
stRp782
sg56
g4
((dp783
S'qy_keep'
p784
I10
sS'nn_keep'
p785
I8
sS'%_take'
p786
I1
sS'arp_nd_keep'
p787
I1
sS'na_keep'
p788
I10
sS'qw_keep'
p789
I6
sS'br_keep'
p790
I1
sS'ny_take'
p791
I12
sS'ad_keep'
p792
I1
sS'ny_keep'
p793
I4
sS'^h_take'
p794
I1
sS'^q_keep'
p795
I1
sS'sd_keep'
p796
I54
sS'b_keep'
p797
I3
sS'nn_take'
p798
I25
sS'qy^d_keep'
p799
I1
sS'sv_keep'
p800
I8
sS'qrr_keep'
p801
I2
sS'ng_keep'
p802
I2
sS'b_take'
p803
I11
sS'no_keep'
p804
I5
sS'%_keep'
p805
I19
sS'h_keep'
p806
I2
sS'^2_keep'
p807
I1
stRp808
sS't3_take'
p809
g4
((dp810
S'h_keep'
p811
I1
sS'sd_keep'
p812
I3
sS'%_keep'
p813
I1
sS't3_keep'
p814
I1
stRp815
sg57
g4
((dp816
S'qy_keep'
p817
I5
sS'nn_keep'
p818
I17
sS'ft_keep'
p819
I1
sS'qh_keep'
p820
I1
sS'br_keep'
p821
I1
sS'bk_keep'
p822
I9
sS'ba_keep'
p823
I2
sS'qw^d_keep'
p824
I1
sS'bh_keep'
p825
I3
sS'qw_keep'
p826
I4
sS'sd_keep'
p827
I133
sS'fo_o_fw_"_by_bc_keep'
p828
I1
sS'b_keep'
p829
I3
sS'b^m_take'
p830
I1
sS'qy^d_keep'
p831
I2
sS'sv_keep'
p832
I12
sS'b^m_keep'
p833
I4
sS'ng_keep'
p834
I6
sS'bk_take'
p835
I6
sS'%_keep'
p836
I14
sS'b_take'
p837
I36
sS'^2_keep'
p838
I1
stRp839
sS'bd_keep'
p840
g4
((dp841
S'qy_keep'
p842
I3
sS'%_take'
p843
I1
sS'aa_keep'
p844
I1
sS'sv_keep'
p845
I10
sS'ad_keep'
p846
I1
sS'aa_take'
p847
I2
sS'ar_keep'
p848
I2
sS'sd_keep'
p849
I31
sS'fo_o_fw_"_by_bc_keep'
p850
I1
sS'bf_keep'
p851
I2
sS'b_keep'
p852
I2
sS'b^m_take'
p853
I1
sS'qy^d_keep'
p854
I1
sS't3_keep'
p855
I1
sS'b_take'
p856
I7
sS'bd_keep'
p857
I12
sS'fa_keep'
p858
I1
sS'%_keep'
p859
I9
sS'bk_take'
p860
I1
stRp861
sS'sv_take'
p862
g4
((dp863
S'sd_keep'
p864
I6
sS'%_keep'
p865
I1
sS'b_take'
p866
I2
sS'sv_keep'
p867
I4
stRp868
sg426
g4
((dp869
S'qy_keep'
p870
I3
sS'qw_keep'
p871
I2
sS'%_take'
p872
I2
sS'qh_keep'
p873
I1
sS'ba_keep'
p874
I1
sS'^h_keep'
p875
I6
sS'sd_keep'
p876
I44
sS'fo_o_fw_"_by_bc_keep'
p877
I1
sS'bf_keep'
p878
I1
sS'qo_keep'
p879
I2
sS'qy^d_keep'
p880
I1
sS'sv_keep'
p881
I9
sS't1_keep'
p882
I5
sS'h_keep'
p883
I1
sS'fa_keep'
p884
I1
sS'%_keep'
p885
I11
sS'bk_take'
p886
I1
sS'b_take'
p887
I5
stRp888
sS'bd_take'
p889
g4
((dp890
S'qw_keep'
p891
I1
sS'sd_keep'
p892
I3
sS'ad_keep'
p893
I1
sS'bd_keep'
p894
I2
sS'fc_take'
p895
I2
sS'sv_keep'
p896
I1
stRp897
sg58
g4
((dp898
S'qy_keep'
p899
I6
sS'nn_keep'
p900
I2
sS'aa_keep'
p901
I1
sS'qh_keep'
p902
I1
sS'bh_take'
p903
I1
sS'bk_keep'
p904
I1
sS'ad_keep'
p905
I2
sS'ny_keep'
p906
I3
sS'bh_keep'
p907
I2
sS'aa_take'
p908
I1
sS'b_keep'
p909
I1
sS'sv_keep'
p910
I37
sS'qrr_keep'
p911
I1
sS'ng_keep'
p912
I2
sS'no_keep'
p913
I10
sS'%_keep'
p914
I20
sS'b_take'
p915
I26
sS'qw_keep'
p916
I2
sS'arp_nd_keep'
p917
I2
sS'na_keep'
p918
I1
sS'b^m_keep'
p919
I1
sS'ba_keep'
p920
I1
sS'bk_take'
p921
I2
sS'fc_keep'
p922
I1
sS'aap_am_keep'
p923
I1
sS'sd_keep'
p924
I103
sS'b^m_take'
p925
I2
sS'qy^d_keep'
p926
I2
sS'^h_take'
p927
I1
sS'h_keep'
p928
I1
sS'qy_take'
p929
I1
sS'fa_keep'
p930
I1
sg88
I2
stRp931
sS'%_keep'
p932
g4
((dp933
S'ba_take'
p934
I17
sS'qy_keep'
p935
I464
sS'qh_keep'
p936
I57
sS'bh_take'
p937
I10
sS'ny_take'
p938
I59
sS'ad_keep'
p939
I49
sS'ny_keep'
p940
I54
sS'bh_keep'
p941
I36
sS'aa_take'
p942
I247
sS'ar_keep'
p943
I19
sS'b_keep'
p944
I289
sS'qw_take'
p945
I2
sS't3_keep'
p946
I5
sS'no_keep'
p947
I9
sS'%_keep'
p948
I982
sS'h_keep'
p949
I139
sS'qw_keep'
p950
I154
sS'^2_take'
p951
I2
sS'%_take'
p952
I107
sS'ar_take'
p953
I7
sS'arp_nd_keep'
p954
I13
sS'bf_take'
p955
I2
sS'b^m_keep'
p956
I13
sS'ba_keep'
p957
I215
sS'qw^d_keep'
p958
I11
sS'sd_keep'
p959
I4542
sS'bd_take'
p960
I1
sS'fc_keep'
p961
I52
sS'aap_am_keep'
p962
I4
sS'^g_keep'
p963
I1
sS'fo_o_fw_"_by_bc_keep'
p964
I11
sS'oo_co_cc_keep'
p965
I10
sS't1_keep'
p966
I11
sS'nn_take'
p967
I45
sS'br_take'
p968
I4
sS'na_keep'
p969
I38
sS'^2_keep'
p970
I47
sS'nn_keep'
p971
I29
sS'aa_keep'
p972
I242
sS'fc_take'
p973
I14
sS'sd_take'
p974
I9
sS'br_keep'
p975
I16
sS'bk_keep'
p976
I17
sS'^h_keep'
p977
I43
sS'ft_keep'
p978
I3
sS'arp_nd_take'
p979
I2
sS'^q_keep'
p980
I18
sS'fo_o_fw_"_by_bc_take'
p981
I8
sS'qo_keep'
p982
I32
sS'sv_keep'
p983
I1907
sS'qrr_keep'
p984
I6
sS'ng_keep'
p985
I21
sS't3_take'
p986
I1
sS'b_take'
p987
I1042
sS'qy^d_take'
p988
I4
sS'bd_keep'
p989
I1
sS'qy_take'
p990
I2
sS'b^m_take'
p991
I13
sS'na_take'
p992
I1
sS'bf_keep'
p993
I65
sS'qy^d_keep'
p994
I123
sS'^h_take'
p995
I1
sS'fa_take'
p996
I1
sg88
I161
sS'fa_keep'
p997
I6
sS'bk_take'
p998
I15
stRp999
sS'b_take'
p1000
g4
((dp1001
S'ba_take'
p1002
I12
sS'qy_keep'
p1003
I533
sg236
I90
sS'ny_take'
p1004
I8
sS'ad_keep'
p1005
I105
sS'ny_keep'
p1006
I24
sg471
I2
sS'bh_keep'
p1007
I37
sS'aa_take'
p1008
I20
sS'ar_keep'
p1009
I19
sS'b_keep'
p1010
I3947
sS'qw_take'
p1011
I1
sS't3_keep'
p1012
I5
sS'sv_take'
p1013
I4
sS'no_keep'
p1014
I3
sS'%_keep'
p1015
I1776
sS'h_keep'
p1016
I173
sS'qw_keep'
p1017
I241
sS'^2_take'
p1018
I1
sS'%_take'
p1019
I478
sS'ar_take'
p1020
I7
sS'arp_nd_keep'
p1021
I9
sS'qh_take'
p1022
I1
sS'na_keep'
p1023
I13
sS'b^m_keep'
p1024
I46
sS'^g_take'
p1025
I1
sS'ba_keep'
p1026
I572
sg185
I8
sS'sd_keep'
p1027
I12032
sS'fc_keep'
p1028
I67
sS'aap_am_keep'
p1029
I5
sS'^g_keep'
p1030
I2
sS'fo_o_fw_"_by_bc_keep'
p1031
I34
sS'nn_take'
p1032
I6
sS't1_keep'
p1033
I7
sS'oo_co_cc_keep'
p1034
I14
sS'br_take'
p1035
I2
sS'^2_keep'
p1036
I104
sS'nn_keep'
p1037
I15
sS'aa_keep'
p1038
I493
sS'fc_take'
p1039
I3
sS'sd_take'
p1040
I10
sS'br_keep'
p1041
I5
sS'bk_keep'
p1042
I37
sS'^h_keep'
p1043
I41
sS'ft_keep'
p1044
I10
sg596
I85
sS'fo_o_fw_"_by_bc_take'
p1045
I12
sS'qo_keep'
p1046
I95
sS'sv_keep'
p1047
I4084
sS'qrr_keep'
p1048
I3
sS'ng_keep'
p1049
I1
sS'fp_keep'
p1050
I3
sg809
I2
sS'b_take'
p1051
I354
sS'bd_keep'
p1052
I6
sS'b^m_take'
p1053
I50
sS'bf_keep'
p1054
I126
sS'qy^d_keep'
p1055
I143
sS'^h_take'
p1056
I1
sS'aap_am_take'
p1057
I1
sg88
I49
sS'fa_keep'
p1058
I4
sS'bk_take'
p1059
I4
stRp1060
sg1034
g4
((dp1061
S'qy_keep'
p1062
I7
sS'qw_keep'
p1063
I6
sS'ba_keep'
p1064
I3
sS'%_take'
p1065
I1
sS'aa_keep'
p1066
I1
sS'ar_take'
p1067
I1
sS'qh_keep'
p1068
I2
sS'br_keep'
p1069
I1
sS'sv_keep'
p1070
I7
sS'ad_keep'
p1071
I3
sS'^h_keep'
p1072
I1
sS'aa_take'
p1073
I15
sS'ar_keep'
p1074
I1
sS'sd_keep'
p1075
I20
sS'fo_o_fw_"_by_bc_keep'
p1076
I1
sS'fo_o_fw_"_by_bc_take'
p1077
I1
sS'oo_co_cc_keep'
p1078
I4
sS'bk_take'
p1079
I1
sS'qy^d_keep'
p1080
I1
sS't3_keep'
p1081
I2
sS'b_keep'
p1082
I4
sS'h_keep'
p1083
I1
sS'bd_keep'
p1084
I1
sS'%_keep'
p1085
I2
sg88
I1
sS'b_take'
p1086
I11
stRp1087
sS'ad_take'
p1088
g4
((dp1089
S'fc_keep'
p1090
I1
sS'qw_keep'
p1091
I1
sS'ad_keep'
p1092
I1
sS'oo_co_cc_keep'
p1093
I1
sS'nn_keep'
p1094
I1
sS'sv_keep'
p1095
I3
stRp1096
sS'qw_keep'
p1097
g4
((dp1098
S'ba_take'
p1099
I2
sS'qy_keep'
p1100
I133
sS'bh_take'
p1101
I1
sS'aa_keep'
p1102
I2
sS'sd_take'
p1103
I53
sS'br_take'
p1104
I7
sS'qh_keep'
p1105
I4
sS'br_keep'
p1106
I12
sS'ny_take'
p1107
I7
sS'ad_keep'
p1108
I7
sg400
I47
sS'ny_keep'
p1109
I1
sS'aa_take'
p1110
I3
sS'fo_o_fw_"_by_bc_take'
p1111
I5
sS'qw_take'
p1112
I1
sS'qo_keep'
p1113
I4
sS'sv_keep'
p1114
I85
sS'qrr_keep'
p1115
I9
sS'ng_keep'
p1116
I1
sg88
I4
sS'no_keep'
p1117
I16
sS'%_keep'
p1118
I77
sS'h_keep'
p1119
I14
sS'ad_take'
p1120
I1
sS'qw_keep'
p1121
I55
sS'^2_take'
p1122
I1
sS'%_take'
p1123
I19
sS'ar_take'
p1124
I1
sS'arp_nd_keep'
p1125
I14
sS'b^m_keep'
p1126
I6
sS'ba_keep'
p1127
I12
sS'qw^d_keep'
p1128
I3
sS'sd_keep'
p1129
I1002
sS'na_take'
p1130
I1
sS'^g_keep'
p1131
I1
sS'fo_o_fw_"_by_bc_keep'
p1132
I2
sS'bf_keep'
p1133
I2
sS'nn_take'
p1134
I2
sS'qy^d_keep'
p1135
I27
sS'^h_take'
p1136
I5
sS'b_keep'
p1137
I14
sS't1_keep'
p1138
I3
sS'b_take'
p1139
I31
sS'oo_co_cc_keep'
p1140
I2
sS'bk_keep'
p1141
I7
sS'fa_keep'
p1142
I1
sS'bk_take'
p1143
I1
sS'^2_keep'
p1144
I1
stRp1145
sS'^2_take'
p1146
g4
((dp1147
S'ar_keep'
p1148
I1
sS'^q_keep'
p1149
I1
sS'qw_keep'
p1150
I1
sS'sd_keep'
p1151
I10
sS'%_take'
p1152
I1
sS'b_keep'
p1153
I17
sS'aa_keep'
p1154
I5
sS'sv_keep'
p1155
I4
sS'bk_keep'
p1156
I1
sS'b^m_take'
p1157
I1
sS'ny_take'
p1158
I1
sS'ny_keep'
p1159
I2
sS'aa_take'
p1160
I7
sS'%_keep'
p1161
I8
sS'^2_keep'
p1162
I1
stRp1163
sg63
g4
((dp1164
S'ny_keep'
p1165
I1
sS'qw_keep'
p1166
I1
sS'sd_keep'
p1167
I2
stRp1168
sg1019
g4
((dp1169
S'ba_take'
p1170
I11
sS'qy_keep'
p1171
I120
sS'bh_take'
p1172
I1
sS'aa_keep'
p1173
I73
sS'fc_take'
p1174
I1
sS'sd_take'
p1175
I1
sS'qh_keep'
p1176
I6
sS'br_keep'
p1177
I4
sS'ny_take'
p1178
I3
sS'ad_keep'
p1179
I10
sS'^h_keep'
p1180
I8
sS'ny_keep'
p1181
I10
sS'bh_keep'
p1182
I8
sS'aa_take'
p1183
I38
sS'ar_keep'
p1184
I1
sS'arp_nd_take'
p1185
I1
sS'^q_keep'
p1186
I5
sS'b_keep'
p1187
I134
sS'qo_keep'
p1188
I16
sS'sv_keep'
p1189
I290
sS'qrr_keep'
p1190
I3
sS'ng_keep'
p1191
I3
sS'no_keep'
p1192
I5
sS'%_keep'
p1193
I147
sS'h_keep'
p1194
I10
sS'oo_co_cc_keep'
p1195
I1
sS'qw_keep'
p1196
I44
sS'%_take'
p1197
I38
sS'ar_take'
p1198
I1
sS'arp_nd_keep'
p1199
I3
sS'nn_keep'
p1200
I9
sS'bk_keep'
p1201
I3
sS'b^m_keep'
p1202
I3
sS'ba_keep'
p1203
I51
sS'qw^d_keep'
p1204
I3
sS'fp_take'
p1205
I1
sS'fc_keep'
p1206
I12
sS'na_keep'
p1207
I8
sS'sd_keep'
p1208
I709
sS'fo_o_fw_"_by_bc_keep'
p1209
I1
sS'bf_keep'
p1210
I14
sS'nn_take'
p1211
I4
sS'qy^d_keep'
p1212
I16
sS'fo_o_fw_"_by_bc_take'
p1213
I1
sS'b_take'
p1214
I168
sS'b^m_take'
p1215
I1
sS'br_take'
p1216
I2
sS'fa_keep'
p1217
I3
sg88
I13
sS'^2_keep'
p1218
I5
stRp1219
sS'fp_keep'
p1220
g4
((dp1221
S'ad_take'
p1222
I1
sS'qy_keep'
p1223
I7
sS'qw_keep'
p1224
I5
sS'ba_take'
p1225
I1
sS'%_take'
p1226
I1
sS'fp_keep'
p1227
I46
sS'bk_keep'
p1228
I2
sS'ba_keep'
p1229
I2
sS'^h_keep'
p1230
I1
sS'fp_take'
p1231
I20
sS'fc_keep'
p1232
I1
sS'sd_keep'
p1233
I9
sS'b_keep'
p1234
I4
sS'qy^d_keep'
p1235
I1
sS'sv_keep'
p1236
I3
sS'fo_o_fw_"_by_bc_take'
p1237
I1
sg88
I1
sS'br_take'
p1238
I1
sS'%_keep'
p1239
I1
sS'b_take'
p1240
I5
stRp1241
sS'ar_take'
p1242
g4
((dp1243
S'ad_keep'
p1244
I3
sS'bd_keep'
p1245
I3
sS'ny_take'
p1246
I1
sS'ba_keep'
p1247
I2
sS'^h_keep'
p1248
I2
sS'ar_keep'
p1249
I17
sS'aap_am_keep'
p1250
I1
sS'sd_keep'
p1251
I33
sS'bf_keep'
p1252
I1
sS'b^m_take'
p1253
I1
sS'sv_keep'
p1254
I11
sS'nn_take'
p1255
I1
sS'bk_keep'
p1256
I1
sS'fa_keep'
p1257
I1
sS'%_keep'
p1258
I5
sS'h_keep'
p1259
I1
stRp1260
sg954
g4
((dp1261
S'qy_keep'
p1262
I3
sS'sd_keep'
p1263
I71
sS'arp_nd_keep'
p1264
I6
sS'qy^d_keep'
p1265
I1
sS'sv_keep'
p1266
I13
sS'%_keep'
p1267
I15
sS'bk_take'
p1268
I7
sS'bk_keep'
p1269
I8
sS'sd_take'
p1270
I1
sS'ba_keep'
p1271
I5
sg88
I1
sS'no_keep'
p1272
I1
sS'bh_keep'
p1273
I5
sS'b_take'
p1274
I32
sS'aa_take'
p1275
I4
stRp1276
sS'qw_take'
p1277
g4
((dp1278
S'qy_keep'
p1279
I6
sS'sd_keep'
p1280
I10
sS'%_take'
p1281
I1
sS'b_keep'
p1282
I2
sS'qy^d_keep'
p1283
I1
sS'sv_keep'
p1284
I2
sS'qrr_keep'
p1285
I1
sS'sd_take'
p1286
I1
sS'%_keep'
p1287
I1
stRp1288
sg762
g4
((dp1289
S'qy_keep'
p1290
I2
sS'ad_keep'
p1291
I1
sS'aa_keep'
p1292
I5
sS'ba_keep'
p1293
I1
sS'ny_keep'
p1294
I1
sS'bh_keep'
p1295
I1
sS'aa_take'
p1296
I2
sS'aap_am_keep'
p1297
I4
sS'sd_keep'
p1298
I28
sS'bf_keep'
p1299
I1
sS'b_keep'
p1300
I1
sS'sv_keep'
p1301
I19
sS'bk_take'
p1302
I1
sS'no_keep'
p1303
I1
sS'%_keep'
p1304
I7
sS'b_take'
p1305
I8
stRp1306
sg758
g4
((dp1307
S'na_keep'
p1308
I1
sS'nn_take'
p1309
I1
sS'qy^d_keep'
p1310
I1
sS'sd_take'
p1311
I1
sS'ng_keep'
p1312
I1
sS'ny_take'
p1313
I8
sS'na_take'
p1314
I1
sS'h_keep'
p1315
I1
stRp1316
sS'bf_take'
p1317
g4
((dp1318
S'sd_keep'
p1319
I2
sS'b_keep'
p1320
I3
sS'aa_keep'
p1321
I2
sS'qo_keep'
p1322
I1
sS'sv_keep'
p1323
I2
sS'aa_take'
p1324
I3
stRp1325
sS'qo_take'
p1326
g4
((dp1327
S'qy_keep'
p1328
I2
sS'sd_keep'
p1329
I1
stRp1330
sS'b^m_keep'
p1331
g4
((dp1332
S'qy_keep'
p1333
I8
sS'nn_keep'
p1334
I2
sS'ny_take'
p1335
I10
sS'%_take'
p1336
I2
sS'aa_keep'
p1337
I19
sS'na_keep'
p1338
I1
sS'sd_take'
p1339
I2
sg1326
I1
sS'bk_take'
p1340
I1
sS'qw_keep'
p1341
I11
sS'bk_keep'
p1342
I14
sS'ba_keep'
p1343
I8
sS'^h_keep'
p1344
I1
sS'ny_keep'
p1345
I3
sS'aa_take'
p1346
I20
sS'fc_keep'
p1347
I3
sS'^q_keep'
p1348
I1
sS'^g_keep'
p1349
I1
sS'bf_keep'
p1350
I1
sS'b_keep'
p1351
I54
sS'nn_take'
p1352
I4
sS'qo_keep'
p1353
I2
sS'qy^d_keep'
p1354
I3
sS'sv_keep'
p1355
I18
sS'b^m_keep'
p1356
I1
sS'h_keep'
p1357
I1
sS'sd_keep'
p1358
I93
sS'%_keep'
p1359
I15
sS'b_take'
p1360
I27
stRp1361
sS'^g_take'
p1362
g4
((dp1363
S'sd_keep'
p1364
I1
sS'ng_keep'
p1365
I1
sS'bk_take'
p1366
I1
stRp1367
sS'ba_keep'
p1368
g4
((dp1369
S'ba_take'
p1370
I2
sS'qy_keep'
p1371
I108
sS'nn_keep'
p1372
I3
sS'aa_keep'
p1373
I88
sS'fc_take'
p1374
I1
sS'br_take'
p1375
I2
sS'qh_keep'
p1376
I17
sS'br_keep'
p1377
I2
sS'ny_take'
p1378
I3
sS'sv_keep'
p1379
I468
sS'ad_keep'
p1380
I11
sS'^h_keep'
p1381
I13
sS'ny_keep'
p1382
I3
sS'bh_keep'
p1383
I11
sS'nn_take'
p1384
I5
sS'aa_take'
p1385
I155
sS'ar_keep'
p1386
I7
sS'^q_keep'
p1387
I3
sS'b_keep'
p1388
I228
sS'qo_keep'
p1389
I17
sS't3_keep'
p1390
I2
sS'qrr_keep'
p1391
I1
sS'bd_keep'
p1392
I3
sS'sv_take'
p1393
I1
sS'no_keep'
p1394
I1
sS'%_keep'
p1395
I326
sS'h_keep'
p1396
I19
sS'qw_keep'
p1397
I56
sS'ft_keep'
p1398
I1
sS'%_take'
p1399
I93
sS'fp_keep'
p1400
I1
sS'ar_take'
p1401
I2
sS'ft_take'
p1402
I1
sS'b^m_keep'
p1403
I3
sS'ba_keep'
p1404
I235
sS'qw^d_keep'
p1405
I1
sS'sd_keep'
p1406
I1591
sS'bh_take'
p1407
I1
sS'fc_keep'
p1408
I22
sS'na_keep'
p1409
I3
sS'^g_keep'
p1410
I1
sS'fo_o_fw_"_by_bc_keep'
p1411
I7
sS'bf_keep'
p1412
I16
sS'b^m_take'
p1413
I1
sS'qy^d_keep'
p1414
I28
sS't1_keep'
p1415
I2
sS'b_take'
p1416
I299
sS'oo_co_cc_keep'
p1417
I4
sS'bk_keep'
p1418
I3
sS'fa_keep'
p1419
I2
sg88
I9
sS'^2_keep'
p1420
I5
stRp1421
sS'br_take'
p1422
g4
((dp1423
S'qy_keep'
p1424
I13
sS'nn_keep'
p1425
I3
sS'%_take'
p1426
I2
sS'sd_take'
p1427
I1
sS'qw_keep'
p1428
I8
sS'ny_take'
p1429
I6
sS'ny_keep'
p1430
I1
sS'aa_take'
p1431
I3
sS'na_keep'
p1432
I1
sS'sd_keep'
p1433
I20
sS'bf_keep'
p1434
I1
sS'b_keep'
p1435
I4
sS'qo_keep'
p1436
I1
sS'qy^d_keep'
p1437
I3
sS'sv_keep'
p1438
I8
sS'qy_take'
p1439
I1
sS'%_keep'
p1440
I1
sS'b_take'
p1441
I1
stRp1442
sS'^g_keep'
p1443
g4
((dp1444
S'qy_keep'
p1445
I2
sS'qw_keep'
p1446
I1
sS'aa_keep'
p1447
I1
sS'arp_nd_keep'
p1448
I1
sS'^q_keep'
p1449
I1
sS'sd_take'
p1450
I1
sS'br_keep'
p1451
I1
sS'ny_take'
p1452
I28
sS'ny_keep'
p1453
I5
sS'na_take'
p1454
I4
sS'aa_take'
p1455
I1
sS'na_keep'
p1456
I9
sS'sd_keep'
p1457
I15
sS'b_keep'
p1458
I2
sS'nn_take'
p1459
I2
sS'sv_keep'
p1460
I2
sS'ng_keep'
p1461
I1
sS'%_keep'
p1462
I2
sS'b_take'
p1463
I3
stRp1464
sg539
g4
((dp1465
S'fc_keep'
p1466
I18
sS'qy_keep'
p1467
I1
sS'sd_keep'
p1468
I11
sS'ft_keep'
p1469
I4
sS'fo_o_fw_"_by_bc_keep'
p1470
I1
sS'fo_o_fw_"_by_bc_take'
p1471
I3
sS'aa_keep'
p1472
I1
sS'fc_take'
p1473
I8
sS'sv_keep'
p1474
I4
sS't3_keep'
p1475
I1
sS'fa_keep'
p1476
I2
sS'%_keep'
p1477
I2
sg889
I5
stRp1478
sg996
g4
((dp1479
S'sv_keep'
p1480
I1
sS'fo_o_fw_"_by_bc_keep'
p1481
I1
stRp1482
sg496
g4
((dp1483
S'qy_keep'
p1484
I3
sS'na_keep'
p1485
I1
sS'qw_keep'
p1486
I1
sS'sd_keep'
p1487
I8
sS'nn_take'
p1488
I2
sS'qy^d_keep'
p1489
I1
sS'sv_keep'
p1490
I2
sS'nn_keep'
p1491
I1
sS'ny_take'
p1492
I20
sS'qy_take'
p1493
I1
sS'bk_keep'
p1494
I1
sS'ny_keep'
p1495
I2
sS'na_take'
p1496
I2
sS'%_keep'
p1497
I1
sS'bk_take'
p1498
I1
stRp1499
sS'fp_take'
p1500
g4
((dp1501
S'qy_keep'
p1502
I4
sS'qw_keep'
p1503
I4
sS'sd_keep'
p1504
I11
sS'ad_keep'
p1505
I1
sS'fo_o_fw_"_by_bc_take'
p1506
I1
sS'b^m_take'
p1507
I1
sS'qo_keep'
p1508
I2
sS'fp_keep'
p1509
I30
sS'ny_take'
p1510
I1
sS'ba_keep'
p1511
I1
sS'qw^d_keep'
p1512
I1
sS'fa_keep'
p1513
I1
sS'%_keep'
p1514
I2
sS'b_take'
p1515
I3
sS'fp_take'
p1516
I32
stRp1517
sg1028
g4
((dp1518
S'qy_keep'
p1519
I6
sg1097
I4
sS'ft_keep'
p1520
I15
sS'%_take'
p1521
I6
sS'aa_keep'
p1522
I1
sg174
I577
sS'ft_take'
p1523
I1
sS'ad_keep'
p1524
I4
sS'fc_keep'
p1525
I953
sS'sd_keep'
p1526
I7
sS'b_keep'
p1527
I1
sS'oo_co_cc_keep'
p1528
I1
sS'sv_keep'
p1529
I5
sg88
I97
sS'%_keep'
p1530
I37
sS'b_take'
p1531
I6
stRp1532
sg66
g4
((dp1533
S'ba_take'
p1534
I8
sS'qy_keep'
p1535
I16
sS'nn_keep'
p1536
I2
sS'aa_keep'
p1537
I1
sS'fc_take'
p1538
I1
sS'bk_take'
p1539
I27
sS'bh_take'
p1540
I2
sS'bk_keep'
p1541
I11
sS'ad_keep'
p1542
I4
sS'^h_keep'
p1543
I2
sS'ny_keep'
p1544
I50
sS'bh_keep'
p1545
I14
sS'aa_take'
p1546
I4
sS'ar_keep'
p1547
I1
sS'^q_keep'
p1548
I1
sS'b_keep'
p1549
I8
sS'qw_take'
p1550
I1
sS'qo_keep'
p1551
I1
sS'sv_keep'
p1552
I42
sS'%_keep'
p1553
I24
sS'b_take'
p1554
I106
sS'qw_keep'
p1555
I3
sS'^2_take'
p1556
I1
sS'%_take'
p1557
I8
sS'arp_nd_keep'
p1558
I1
sS'na_keep'
p1559
I19
sg1331
I7
sS'ba_keep'
p1560
I10
sS'sd_keep'
p1561
I240
sS'fc_keep'
p1562
I1
sS'aap_am_keep'
p1563
I1
sS'^g_keep'
p1564
I1
sS'fo_o_fw_"_by_bc_keep'
p1565
I2
sS'bf_keep'
p1566
I1
sS'b^m_take'
p1567
I1
sS'qy^d_keep'
p1568
I7
sS'br_keep'
p1569
I1
sS't1_keep'
p1570
I1
sS'h_keep'
p1571
I2
sS'ny_take'
p1572
I1
sS'fa_keep'
p1573
I2
sg88
I2
stRp1574
sg161
g4
((dp1575
g3
I373
sS'qy_keep'
p1576
I1137
sg113
I1
sS'qh_keep'
p1577
I108
sS'nn_keep'
p1578
I38
sS'ny_take'
p1579
I31
sS'ad_keep'
p1580
I150
sS'ny_keep'
p1581
I66
sg475
I537
sS'nn_take'
p1582
I32
sS'aa_take'
p1583
I970
sS'ar_keep'
p1584
I45
sS'b_keep'
p1585
I1262
sg1277
I11
sg340
I21
sS'sv_take'
p1586
I3
sS'no_keep'
p1587
I9
sg932
I3990
sS'h_keep'
p1588
I304
sS'qw_keep'
p1589
I483
sg1146
I40
sS'%_take'
p1590
I572
sS'ar_take'
p1591
I27
sS'arp_nd_keep'
p1592
I9
sg1317
I7
sS'b^m_keep'
p1593
I146
sg1368
I1830
sS'qw^d_keep'
p1594
I18
sS'sd_keep'
p1595
I30550
sS'fp_take'
p1596
I1
sS'fc_keep'
p1597
I42
sS'aap_am_keep'
p1598
I10
sg1443
I33
sS'fo_o_fw_"_by_bc_keep'
p1599
I61
sS'oo_co_cc_keep'
p1600
I27
sS't1_keep'
p1601
I39
sS'qy_take'
p1602
I20
sg1422
I24
sS'na_keep'
p1603
I13
sS'^2_keep'
p1604
I229
sS'bh_take'
p1605
I133
sS'aa_keep'
p1606
I658
sS'fc_take'
p1607
I2
sg205
I16
sS'br_keep'
p1608
I58
sg301
I341
sS'^h_keep'
p1609
I97
sS'ft_keep'
p1610
I3
sS'arp_nd_take'
p1611
I2
sS'^q_keep'
p1612
I333
sS'fo_o_fw_"_by_bc_take'
p1613
I10
sS'qo_keep'
p1614
I111
sS'sv_keep'
p1615
I3906
sS'qrr_keep'
p1616
I11
sS'ng_keep'
p1617
I6
sg840
I19
sS't3_take'
p1618
I1
sg1000
I16649
sS'ad_take'
p1619
I1
sS'ft_take'
p1620
I1
sS'qy^d_take'
p1621
I7
sS'fp_keep'
p1622
I6
sS'qo_take'
p1623
I2
sS'b^m_take'
p1624
I63
sS'na_take'
p1625
I1
sS'bf_keep'
p1626
I260
sS'qy^d_keep'
p1627
I356
sS'^h_take'
p1628
I2
sS'aap_am_take'
p1629
I2
sS'bk_take'
p1630
I313
sS'fa_keep'
p1631
I19
sg88
I261
stRp1632
sS'fo_o_fw_"_by_bc_keep'
p1633
g4
((dp1634
S'qy_keep'
p1635
I25
sS'aa_keep'
p1636
I9
sS'qh_keep'
p1637
I2
sS'br_keep'
p1638
I2
sS'ny_take'
p1639
I3
sS'ad_keep'
p1640
I8
sS'^h_keep'
p1641
I7
sS'aa_take'
p1642
I11
sS'fo_o_fw_"_by_bc_take'
p1643
I8
sS'qo_keep'
p1644
I10
sS'sv_keep'
p1645
I38
sS'fp_keep'
p1646
I2
sS'%_keep'
p1647
I19
sS'b_take'
p1648
I40
sS'qw_keep'
p1649
I16
sS'ft_keep'
p1650
I2
sS'%_take'
p1651
I3
sS'bd_keep'
p1652
I2
sS'ft_take'
p1653
I1
sS'ba_keep'
p1654
I4
sS'fp_take'
p1655
I1
sS'fc_keep'
p1656
I6
sS'na_keep'
p1657
I2
sS'sd_keep'
p1658
I137
sS'fo_o_fw_"_by_bc_keep'
p1659
I14
sS'bf_keep'
p1660
I1
sS'oo_co_cc_keep'
p1661
I1
sS'qy^d_keep'
p1662
I1
sS'b_keep'
p1663
I6
sS'nn_take'
p1664
I1
sS'bk_keep'
p1665
I1
sS'fa_keep'
p1666
I1
stRp1667
sg163
g4
((dp1668
S'qy_keep'
p1669
I15
sS'nn_keep'
p1670
I1
sS'aa_keep'
p1671
I67
sg1362
I1
sS'qh_keep'
p1672
I3
sS'br_keep'
p1673
I2
sS'ny_take'
p1674
I10
sS'ad_keep'
p1675
I1
sS'^h_keep'
p1676
I2
sS'ny_keep'
p1677
I2
sS'aa_take'
p1678
I297
sg562
I8
sS'^q_keep'
p1679
I2
sS'b_keep'
p1680
I41
sS'qo_keep'
p1681
I2
sS'sv_keep'
p1682
I40
sS'qrr_keep'
p1683
I1
sS'ng_keep'
p1684
I1
sS'no_keep'
p1685
I1
sS'%_keep'
p1686
I57
sS'b_take'
p1687
I39
sS'qw_keep'
p1688
I4
sS'%_take'
p1689
I8
sS'ar_take'
p1690
I1
sS'arp_nd_keep'
p1691
I2
sS'aap_am_keep'
p1692
I3
sS'bk_keep'
p1693
I3
sS'b^m_keep'
p1694
I3
sS'sd_take'
p1695
I2
sS'ba_keep'
p1696
I4
sS'sd_keep'
p1697
I114
sS'na_keep'
p1698
I2
sS'^g_keep'
p1699
I3
sS'fo_o_fw_"_by_bc_keep'
p1700
I1
sS'bf_keep'
p1701
I31
sS'nn_take'
p1702
I2
sS'qy^d_keep'
p1703
I2
sS'fo_o_fw_"_by_bc_take'
p1704
I1
sS'aap_am_take'
p1705
I1
sS'br_take'
p1706
I1
sg88
I2
sS'^2_keep'
p1707
I3
stRp1708
sg85
g4
((dp1709
S'ba_take'
p1710
I2
sS'qy_keep'
p1711
I18
sS'nn_keep'
p1712
I114
sS'ba_keep'
p1713
I2
sS'%_take'
p1714
I2
sS'aa_keep'
p1715
I1
sS'bf_take'
p1716
I1
sS'bk_take'
p1717
I9
sS'bh_take'
p1718
I1
sS'bk_keep'
p1719
I5
sS'ad_keep'
p1720
I1
sg1088
I1
sS'^h_keep'
p1721
I1
sS'bh_keep'
p1722
I3
sS'aa_take'
p1723
I1
sS'qw_keep'
p1724
I3
sS'sd_keep'
p1725
I484
sS'b_keep'
p1726
I4
sS'b^m_take'
p1727
I11
sS'qo_keep'
p1728
I1
sS'qy^d_keep'
p1729
I6
sS'sv_keep'
p1730
I30
sS'ng_keep'
p1731
I12
sS'h_keep'
p1732
I1
sS'nn_take'
p1733
I2
sS'no_keep'
p1734
I1
sS'%_keep'
p1735
I29
sS'b_take'
p1736
I15
stRp1737
sg1022
g4
((dp1738
S'sv_keep'
p1739
I1
stRp1740
sg1627
g4
((dp1741
S'qy_keep'
p1742
I30
sS'nn_keep'
p1743
I14
sS'aa_keep'
p1744
I4
sS'sd_take'
p1745
I1
sS'br_keep'
p1746
I2
sS'ny_take'
p1747
I339
sS'ad_keep'
p1748
I1
sS'^h_keep'
p1749
I1
sS'ny_keep'
p1750
I34
sS'bh_keep'
p1751
I1
sS'aa_take'
p1752
I3
sS'b_keep'
p1753
I11
sS'qw_take'
p1754
I1
sS'qo_keep'
p1755
I2
sS'sv_keep'
p1756
I19
sS'qrr_keep'
p1757
I8
sS'ng_keep'
p1758
I30
sS'no_keep'
p1759
I18
sS'%_keep'
p1760
I62
sS'b_take'
p1761
I28
sS'qw_keep'
p1762
I2
sS'no_take'
p1763
I1
sS'%_take'
p1764
I12
sS'ar_take'
p1765
I1
sS'arp_nd_keep'
p1766
I27
sS'na_keep'
p1767
I90
sS'ba_keep'
p1768
I4
sS'br_take'
p1769
I6
sS'sd_keep'
p1770
I115
sS'na_take'
p1771
I32
sS'aap_am_keep'
p1772
I1
sS'^g_keep'
p1773
I4
sS'bf_keep'
p1774
I1
sS'oo_co_cc_keep'
p1775
I1
sS'qy^d_keep'
p1776
I25
sS'^h_take'
p1777
I1
sS'fo_o_fw_"_by_bc_take'
p1778
I2
sS'qy_take'
p1779
I1
sS't1_keep'
p1780
I1
sS'h_keep'
p1781
I3
sS'nn_take'
p1782
I102
sS'bk_keep'
p1783
I4
sg88
I3
sS'^2_keep'
p1784
I3
stRp1785
sg80
g4
((dp1786
S'qy_keep'
p1787
I7
sS'nn_keep'
p1788
I2
sS'sd_keep'
p1789
I13
sS'%_take'
p1790
I1
sS'qy^d_keep'
p1791
I3
sS'sv_keep'
p1792
I2
sS'^h_take'
p1793
I1
sS'^h_keep'
p1794
I1
sS'no_keep'
p1795
I1
sS'%_keep'
p1796
I1
stRp1797
sg1010
g4
((dp1798
S'ba_take'
p1799
I4
sS'qy_keep'
p1800
I173
sS'nn_keep'
p1801
I6
sS'aa_keep'
p1802
I175
sS'fc_take'
p1803
I1
sS'sd_take'
p1804
I3
sS'qh_keep'
p1805
I17
sS'br_keep'
p1806
I1
sS'ny_take'
p1807
I13
sS'sv_keep'
p1808
I1392
sS'ad_keep'
p1809
I31
sS'^h_keep'
p1810
I17
sS'ny_keep'
p1811
I7
sS'bh_keep'
p1812
I9
sS'aa_take'
p1813
I28
sS'ar_keep'
p1814
I2
sS'^q_keep'
p1815
I22
sS'b_keep'
p1816
I1233
sS'qo_keep'
p1817
I32
sS't3_keep'
p1818
I3
sS'ng_keep'
p1819
I1
sg862
I3
sS'aap_am_take'
p1820
I1
sg88
I14
sS'no_keep'
p1821
I4
sS'%_keep'
p1822
I615
sS'b_take'
p1823
I188
sS'oo_co_cc_keep'
p1824
I4
sS'ad_take'
p1825
I1
sS'qw_keep'
p1826
I73
sS'ft_keep'
p1827
I3
sS'%_take'
p1828
I168
sS'ar_take'
p1829
I1
sS'aap_am_keep'
p1830
I3
sS'b^m_keep'
p1831
I16
sS'ba_keep'
p1832
I231
sS'qw^d_keep'
p1833
I3
sS'fp_take'
p1834
I1
sS'fc_keep'
p1835
I26
sS'na_keep'
p1836
I3
sS'sd_keep'
p1837
I3430
sS'fo_o_fw_"_by_bc_keep'
p1838
I19
sS'bf_keep'
p1839
I45
sS'nn_take'
p1840
I5
sS'qy^d_keep'
p1841
I51
sS'b^m_take'
p1842
I19
sS't1_keep'
p1843
I2
sS'h_keep'
p1844
I51
sS'qy_take'
p1845
I2
sS'bk_keep'
p1846
I7
sS'fa_keep'
p1847
I2
sS'bk_take'
p1848
I1
sS'^2_keep'
p1849
I36
stRp1850
sS's'
g4
((dp1851
S'ad_take'
p1852
I1
sS'qy_keep'
p1853
I92
sS'qw_keep'
p1854
I68
sS'ft_keep'
p1855
I1
sS'%_take'
p1856
I9
sg1220
I18
sS'ny_take'
p1857
I1
sS'ad_keep'
p1858
I28
sS'qw^d_keep'
p1859
I2
sS'^h_keep'
p1860
I6
sg1500
I34
sS'fc_keep'
p1861
I1
sS'sd_keep'
p1862
I108
sg1633
I138
sS'bf_keep'
p1863
I1
sg628
I335
sS'oo_co_cc_keep'
p1864
I3
sS'qo_keep'
p1865
I49
sS'qy^d_keep'
p1866
I10
sS'sv_keep'
p1867
I36
sS'b_keep'
p1868
I1
sS'h_keep'
p1869
I4
sS'qy_take'
p1870
I4
sS'br_take'
p1871
I2
sS'fa_keep'
p1872
I1
sS'%_keep'
p1873
I16
sS'b_take'
p1874
I2
sS'^2_keep'
p1875
I1
stRp1876
sg1106
g4
((dp1877
S'qy_keep'
p1878
I24
sS'nn_keep'
p1879
I1
sS'%_take'
p1880
I1
sS'aa_keep'
p1881
I5
sg1242
I1
sS'qy_take'
p1882
I2
sS'sd_take'
p1883
I4
sS'qw_keep'
p1884
I7
sS'ny_take'
p1885
I18
sS'ad_keep'
p1886
I1
sS'ny_keep'
p1887
I3
sS'na_take'
p1888
I1
sS'aa_take'
p1889
I13
sS'na_keep'
p1890
I2
sS'sd_keep'
p1891
I54
sS'fo_o_fw_"_by_bc_keep'
p1892
I1
sS'bf_keep'
p1893
I1
sS'b_keep'
p1894
I1
sS'oo_co_cc_keep'
p1895
I1
sS'qo_keep'
p1896
I1
sS'qy^d_keep'
p1897
I4
sS'sv_keep'
p1898
I14
sS'b^m_keep'
p1899
I1
sS'nn_take'
p1900
I3
sS'fa_keep'
p1901
I1
sS'no_keep'
p1902
I1
sS'%_keep'
p1903
I6
sS'b_take'
p1904
I3
stRp1905
sg1629
g4
((dp1906
S'aap_am_keep'
p1907
I2
sS'sd_keep'
p1908
I1
sS'b_take'
p1909
I1
sS'b_keep'
p1910
I1
sS'aa_keep'
p1911
I1
sS'qo_keep'
p1912
I1
sS'sv_keep'
p1913
I3
stRp1914
sg1588
g4
((dp1915
S'qy_keep'
p1916
I33
sS'bh_take'
p1917
I1
sS'aa_keep'
p1918
I12
sS'^g_take'
p1919
I1
sS'qh_keep'
p1920
I3
sS'br_keep'
p1921
I1
sS'sv_keep'
p1922
I256
sS'ad_keep'
p1923
I5
sS'^h_keep'
p1924
I4
sS'ny_keep'
p1925
I1
sS'bh_keep'
p1926
I2
sS'aa_take'
p1927
I13
sS'^q_keep'
p1928
I1
sS'b_keep'
p1929
I9
sS'qw_take'
p1930
I1
sS'qo_keep'
p1931
I3
sS't3_keep'
p1932
I1
sS'sv_take'
p1933
I1
sS'%_keep'
p1934
I107
sS'h_keep'
p1935
I25
sS'qw_keep'
p1936
I23
sS'qy^d_take'
p1937
I1
sS'bd_keep'
p1938
I1
sS'ar_take'
p1939
I1
sS'na_keep'
p1940
I1
sS'ba_keep'
p1941
I7
sS'qw^d_keep'
p1942
I1
sS'fc_keep'
p1943
I2
sS'aap_am_keep'
p1944
I1
sS'sd_keep'
p1945
I424
sS'fo_o_fw_"_by_bc_keep'
p1946
I2
sS'bf_keep'
p1947
I2
sS'oo_co_cc_keep'
p1948
I2
sS'qy^d_keep'
p1949
I5
sS'fo_o_fw_"_by_bc_take'
p1950
I2
sS'b_take'
p1951
I81
sS'%_take'
p1952
I6
sg88
I1
stRp1953
sg1624
g4
((dp1954
S'qy_keep'
p1955
I16
sS'nn_keep'
p1956
I1
sS'aa_keep'
p1957
I6
sS'sd_take'
p1958
I2
sS'qh_keep'
p1959
I1
sS'br_keep'
p1960
I1
sS'ny_take'
p1961
I3
sS'ad_keep'
p1962
I2
sS'^h_keep'
p1963
I1
sS'ny_keep'
p1964
I1
sS'bh_keep'
p1965
I2
sS'aa_take'
p1966
I3
sS'b_keep'
p1967
I28
sS'qo_keep'
p1968
I3
sS'sv_keep'
p1969
I37
sS'no_keep'
p1970
I1
sS'%_keep'
p1971
I19
sS'b_take'
p1972
I12
sS'qw_keep'
p1973
I6
sS'%_take'
p1974
I3
sS'fp_keep'
p1975
I1
sS'ar_take'
p1976
I1
sS'b^m_keep'
p1977
I2
sS'ba_keep'
p1978
I11
sS'br_take'
p1979
I1
sS'fc_keep'
p1980
I2
sS'na_keep'
p1981
I1
sS'sd_keep'
p1982
I96
sS'bf_keep'
p1983
I1
sS'nn_take'
p1984
I3
sS'qy^d_keep'
p1985
I4
sS'b^m_take'
p1986
I4
sS'bk_keep'
p1987
I7
sS'fa_keep'
p1988
I1
sg88
I1
stRp1989
sg480
g4
((dp1990
S'ba_take'
p1991
I18
sS'qy_keep'
p1992
I79
sS'nn_keep'
p1993
I4
sS'aa_keep'
p1994
I7
sS'qh_keep'
p1995
I2
sS'bh_take'
p1996
I4
sS'ny_take'
p1997
I4
sS'sv_keep'
p1998
I136
sS'ad_keep'
p1999
I4
sS'^h_keep'
p2000
I7
sS'ny_keep'
p2001
I200
sS'bh_keep'
p2002
I5
sS'aa_take'
p2003
I3
sS'ar_keep'
p2004
I3
sS'b_keep'
p2005
I18
sS'qo_keep'
p2006
I6
sS't3_keep'
p2007
I2
sS'qrr_keep'
p2008
I5
sS'ng_keep'
p2009
I1
sS'no_keep'
p2010
I2
sS'%_keep'
p2011
I101
sS'h_keep'
p2012
I7
sS'qw_keep'
p2013
I47
sS'%_take'
p2014
I15
sS'bd_keep'
p2015
I1
sS'arp_nd_keep'
p2016
I1
sS'qy^d_take'
p2017
I1
sS'b^m_keep'
p2018
I5
sS'ba_keep'
p2019
I50
sS'qw^d_keep'
p2020
I2
sS'bk_take'
p2021
I60
sS'fc_keep'
p2022
I2
sS'na_keep'
p2023
I17
sS'sd_keep'
p2024
I912
sS'fo_o_fw_"_by_bc_keep'
p2025
I1
sS'bf_keep'
p2026
I3
sS'nn_take'
p2027
I3
sS'qy^d_keep'
p2028
I22
sS'b^m_take'
p2029
I17
sS'fo_o_fw_"_by_bc_take'
p2030
I1
sS't1_keep'
p2031
I1
sS'b_take'
p2032
I95
sS'qy_take'
p2033
I1
sS'bk_keep'
p2034
I19
sg88
I1
sS'^2_keep'
p2035
I1
stRp2036
sg997
g4
((dp2037
S'ba_take'
p2038
I1
sS'qy_keep'
p2039
I2
sS'qw_keep'
p2040
I1
sS'bd_keep'
p2041
I19
sS'bk_keep'
p2042
I1
sg356
I4
sS'bd_take'
p2043
I3
sS'fc_keep'
p2044
I3
sS'sd_keep'
p2045
I23
sS'nn_take'
p2046
I1
sS'qo_keep'
p2047
I1
sS'sv_keep'
p2048
I2
sS'b_take'
p2049
I4
sS'b^m_take'
p2050
I1
sS'fa_keep'
p2051
I1
sS'aa_take'
p2052
I1
sS'no_keep'
p2053
I1
sS'%_keep'
p2054
I2
sS'bk_take'
p2055
I1
stRp2056
sg1630
g4
((dp2057
S'ba_take'
p2058
I1
sS'qy_keep'
p2059
I29
sS'aa_keep'
p2060
I2
sS'br_keep'
p2061
I1
sS'bk_keep'
p2062
I33
sS'ad_keep'
p2063
I9
sS'^h_keep'
p2064
I2
sS'ny_keep'
p2065
I1
sS'bh_keep'
p2066
I2
sS'b^m_take'
p2067
I1
sS'b_keep'
p2068
I27
sS'qo_keep'
p2069
I4
sS'sv_keep'
p2070
I41
sS'%_keep'
p2071
I44
sS'b_take'
p2072
I23
sS'qw_keep'
p2073
I14
sS'ft_keep'
p2074
I1
sS'%_take'
p2075
I9
sS'b^m_keep'
p2076
I1
sS'ba_keep'
p2077
I11
sS'qw^d_keep'
p2078
I1
sS'na_take'
p2079
I1
sS'fc_keep'
p2080
I1
sS'sd_keep'
p2081
I240
sS'fo_o_fw_"_by_bc_keep'
p2082
I1
sS'bf_keep'
p2083
I3
sS'nn_take'
p2084
I1
sS'qy^d_keep'
p2085
I11
sS't1_keep'
p2086
I1
sS'h_keep'
p2087
I2
sS'oo_co_cc_keep'
p2088
I1
sS'ny_take'
p2089
I2
sg88
I1
stRp2090
sg1604
g4
((dp2091
S'qy_keep'
p2092
I6
sS'nn_keep'
p2093
I1
sS'aa_keep'
p2094
I49
sS'br_keep'
p2095
I1
sS'bk_keep'
p2096
I2
sS'ad_keep'
p2097
I1
sS'^h_keep'
p2098
I1
sS'ny_keep'
p2099
I4
sS'aa_take'
p2100
I115
sS'ar_keep'
p2101
I3
sS'^q_keep'
p2102
I2
sS'b_keep'
p2103
I107
sS'qo_keep'
p2104
I1
sS'sv_keep'
p2105
I49
sS'no_keep'
p2106
I1
sS'%_keep'
p2107
I62
sS'b_take'
p2108
I45
sS'qw_keep'
p2109
I1
sS'%_take'
p2110
I11
sS'ar_take'
p2111
I2
sS'b^m_keep'
p2112
I2
sS'ba_keep'
p2113
I15
sS'br_take'
p2114
I1
sS'sd_keep'
p2115
I90
sS'fc_keep'
p2116
I1
sS'aap_am_keep'
p2117
I1
sS'^g_keep'
p2118
I2
sS'bf_keep'
p2119
I3
sS'qy^d_keep'
p2120
I2
sS'h_keep'
p2121
I1
sS'ny_take'
p2122
I2
sS'fa_keep'
p2123
I1
sS'bk_take'
p2124
I1
sS'^2_keep'
p2125
I10
stRp2126
s.