ccopy_reg
_reconstructor
p1
(csklearn.linear_model.logistic
LogisticRegression
p2
c__builtin__
object
p3
NtRp4
(dp5
S'warm_start'
p6
I00
sS'C'
F1
sS'classes_'
p7
cnumpy.core.multiarray
_reconstruct
p8
(cnumpy
ndarray
p9
(I0
tS'b'
tRp10
(I1
(I2
tcnumpy
dtype
p11
(S'i4'
I0
I1
tRp12
(I3
S'<'
NNNI-1
I-1
I0
tbI00
S'\x00\x00\x00\x00\x01\x00\x00\x00'
tbsS'n_jobs'
p13
I1
sS'verbose'
p14
I0
sS'fit_intercept'
p15
I01
sS'max_iter'
p16
I100
sS'n_iter_'
p17
g8
(g9
(I0
tS'b'
tRp18
(I1
(I1
tg11
(S'i4'
I0
I1
tRp19
(I3
S'<'
NNNI-1
I-1
I0
tbI00
S'\x07\x00\x00\x00'
tbsS'intercept_'
p20
g8
(g9
(I0
tS'b'
tRp21
(I1
(I1
tg11
(S'f8'
I0
I1
tRp22
(I3
S'<'
NNNI-1
I-1
I0
tbI00
S"\x1b'\x99\xca\x1c)\xa8?"
tbsS'penalty'
p23
S'l2'
p24
sS'multi_class'
p25
S'ovr'
p26
sS'random_state'
p27
NsS'_sklearn_version'
p28
S'0.18.1'
p29
sS'class_weight'
p30
S'auto'
p31
sS'dual'
p32
I00
sS'tol'
p33
F0.0001
sS'coef_'
p34
g8
(g9
(I0
tS'b'
tRp35
(I1
(I1
I3
tg22
I01
S'\x87\n%\xcb\x1d\xa0\xba?\x17\xe3\xd3\xec\xc8\x98\xe2?\xe01\xbb\xf0R\x0c\x0f@'
tbsS'solver'
p36
S'liblinear'
p37
sS'intercept_scaling'
p38
I1
sb.